ARM GAS  C:\Users\simon\AppData\Local\Temp\ccnhtYw5.s 			page 1


   1              		.syntax unified
   2              		.cpu cortex-m3
   3              		.fpu softvfp
   4              		.eabi_attribute 20, 1
   5              		.eabi_attribute 21, 1
   6              		.eabi_attribute 23, 3
   7              		.eabi_attribute 24, 1
   8              		.eabi_attribute 25, 1
   9              		.eabi_attribute 26, 1
  10              		.eabi_attribute 30, 1
  11              		.eabi_attribute 34, 1
  12              		.eabi_attribute 18, 4
  13              		.thumb
  14              		.syntax unified
  15              		.file	"GUI_X.c"
  16              		.text
  17              	.Ltext0:
  18              		.cfi_sections	.debug_frame
  19              		.section	.text.GUI_X_Systick_Intr,"ax",%progbits
  20              		.align	2
  21              		.global	GUI_X_Systick_Intr
  22              		.thumb
  23              		.thumb_func
  24              		.type	GUI_X_Systick_Intr, %function
  25              	GUI_X_Systick_Intr:
  26              	.LFB70:
  27              		.file 1 "GUI_X.c"
   1:GUI_X.c       **** /*********************************************************************
   2:GUI_X.c       **** *                SEGGER Microcontroller GmbH & Co. KG                *
   3:GUI_X.c       **** *        Solutions for real time microcontroller applications        *
   4:GUI_X.c       **** **********************************************************************
   5:GUI_X.c       **** *                                                                    *
   6:GUI_X.c       **** *        (c) 1996 - 2017  SEGGER Microcontroller GmbH & Co. KG       *
   7:GUI_X.c       **** *                                                                    *
   8:GUI_X.c       **** *        Internet: www.segger.com    Support:  support@segger.com    *
   9:GUI_X.c       **** *                                                                    *
  10:GUI_X.c       **** **********************************************************************
  11:GUI_X.c       **** 
  12:GUI_X.c       **** ** emWin V5.46 - Graphical user interface for embedded applications **
  13:GUI_X.c       **** All  Intellectual Property rights  in the Software belongs to  SEGGER.
  14:GUI_X.c       **** emWin is protected by  international copyright laws.  Knowledge of the
  15:GUI_X.c       **** source code may not be used to write a similar product.  This file may
  16:GUI_X.c       **** only be used in accordance with the following terms:
  17:GUI_X.c       **** 
  18:GUI_X.c       **** The software  has been licensed to  Cypress Semiconductor Corporation,
  19:GUI_X.c       **** whose registered  office is situated  at 198 Champion Ct. San Jose, CA 
  20:GUI_X.c       **** 95134 USA  solely for the  purposes of creating  libraries for Cypress
  21:GUI_X.c       **** PSoC3 and  PSoC5 processor-based devices,  sublicensed and distributed
  22:GUI_X.c       **** under  the  terms  and  conditions  of  the  Cypress  End User License
  23:GUI_X.c       **** Agreement.
  24:GUI_X.c       **** Full source code is available at: www.segger.com
  25:GUI_X.c       **** 
  26:GUI_X.c       **** We appreciate your understanding and fairness.
  27:GUI_X.c       **** ----------------------------------------------------------------------
  28:GUI_X.c       **** Licensing information
  29:GUI_X.c       **** Licensor:                 SEGGER Microcontroller Systems LLC
  30:GUI_X.c       **** Licensed to:              Cypress Semiconductor Corp, 198 Champion Ct., San Jose, CA 95134, USA
ARM GAS  C:\Users\simon\AppData\Local\Temp\ccnhtYw5.s 			page 2


  31:GUI_X.c       **** Licensed SEGGER software: emWin
  32:GUI_X.c       **** License number:           GUI-00319
  33:GUI_X.c       **** License model:            Services and License Agreement, signed June 10th, 2009
  34:GUI_X.c       **** Licensed platform:        Any Cypress platform (Initial targets are: PSoC3, PSoC5)
  35:GUI_X.c       **** ----------------------------------------------------------------------
  36:GUI_X.c       **** Support and Update Agreement (SUA)
  37:GUI_X.c       **** SUA period:               2009-06-12 - 2022-07-27
  38:GUI_X.c       **** Contact to extend SUA:    sales@segger.com
  39:GUI_X.c       **** ----------------------------------------------------------------------
  40:GUI_X.c       **** File        : GUI_X.C
  41:GUI_X.c       **** Purpose     : Config / System dependent externals for GUI
  42:GUI_X.c       **** ---------------------------END-OF-HEADER------------------------------
  43:GUI_X.c       **** */
  44:GUI_X.c       **** 
  45:GUI_X.c       **** #include "GUI.h"
  46:GUI_X.c       **** 
  47:GUI_X.c       **** #include "project.h"
  48:GUI_X.c       **** 
  49:GUI_X.c       **** /*********************************************************************
  50:GUI_X.c       **** *
  51:GUI_X.c       **** *       Function Prototypes
  52:GUI_X.c       **** */
  53:GUI_X.c       **** void GUI_X_Systick_Init(void);
  54:GUI_X.c       **** 
  55:GUI_X.c       **** /*********************************************************************
  56:GUI_X.c       **** *
  57:GUI_X.c       **** *       Global data
  58:GUI_X.c       **** */
  59:GUI_X.c       **** volatile GUI_TIMER_TIME OS_TimeMS;
  60:GUI_X.c       **** 
  61:GUI_X.c       **** /*********************************************************************
  62:GUI_X.c       **** *
  63:GUI_X.c       **** *      Timing:
  64:GUI_X.c       **** *                 GUI_X_GetTime()
  65:GUI_X.c       **** *                 GUI_X_Delay(int)
  66:GUI_X.c       **** *
  67:GUI_X.c       **** *   Some timing dependent routines require a GetTime
  68:GUI_X.c       **** *   and delay function. Default time unit (tick), normally is
  69:GUI_X.c       **** *   1 ms.
  70:GUI_X.c       **** */
  71:GUI_X.c       **** 
  72:GUI_X.c       **** GUI_TIMER_TIME GUI_X_GetTime(void) { 
  73:GUI_X.c       ****   return OS_TimeMS; 
  74:GUI_X.c       **** }
  75:GUI_X.c       **** 
  76:GUI_X.c       **** void GUI_X_Delay(int ms) { 
  77:GUI_X.c       ****   int tEnd = OS_TimeMS + ms;
  78:GUI_X.c       ****   while ((tEnd - OS_TimeMS) > 0);
  79:GUI_X.c       **** }
  80:GUI_X.c       **** 
  81:GUI_X.c       **** /*********************************************************************
  82:GUI_X.c       **** *
  83:GUI_X.c       **** *       GUI_X_Init()
  84:GUI_X.c       **** *
  85:GUI_X.c       **** * Note:
  86:GUI_X.c       **** *     GUI_X_Init() is called from GUI_Init is a possibility to init
  87:GUI_X.c       **** *     some hardware which needs to be up and running before the GUI.
ARM GAS  C:\Users\simon\AppData\Local\Temp\ccnhtYw5.s 			page 3


  88:GUI_X.c       **** */
  89:GUI_X.c       **** void GUI_X_Init(void) {
  90:GUI_X.c       ****   GUI_X_Systick_Init();
  91:GUI_X.c       **** }
  92:GUI_X.c       **** 
  93:GUI_X.c       **** 
  94:GUI_X.c       **** /*********************************************************************
  95:GUI_X.c       **** *
  96:GUI_X.c       **** *       GUI_X_ExecIdle
  97:GUI_X.c       **** *
  98:GUI_X.c       **** * Note:
  99:GUI_X.c       **** *  Called if WM is in idle state
 100:GUI_X.c       **** */
 101:GUI_X.c       **** void GUI_X_ExecIdle(void) {}
 102:GUI_X.c       **** 
 103:GUI_X.c       **** /*********************************************************************
 104:GUI_X.c       **** *
 105:GUI_X.c       **** *      Logging: OS dependent
 106:GUI_X.c       **** 
 107:GUI_X.c       **** Note:
 108:GUI_X.c       ****   Logging is used in higher debug levels only. The typical target
 109:GUI_X.c       ****   build does not use logging and does therefor not require any of
 110:GUI_X.c       ****   the logging routines below. For a release build without logging
 111:GUI_X.c       ****   the routines below may be eliminated to save some space.
 112:GUI_X.c       ****   (If the linker is not function aware and eliminates unreferenced
 113:GUI_X.c       ****   functions automatically)
 114:GUI_X.c       **** 
 115:GUI_X.c       **** */
 116:GUI_X.c       **** 
 117:GUI_X.c       **** void GUI_X_Log     (const char *s) { GUI_USE_PARA(s); }
 118:GUI_X.c       **** void GUI_X_Warn    (const char *s) { GUI_USE_PARA(s); }
 119:GUI_X.c       **** void GUI_X_ErrorOut(const char *s) { GUI_USE_PARA(s); }
 120:GUI_X.c       **** 
 121:GUI_X.c       **** /*********************************************************************
 122:GUI_X.c       **** *
 123:GUI_X.c       **** *         Setup Systick for timing
 124:GUI_X.c       **** *
 125:GUI_X.c       **** */
 126:GUI_X.c       **** /*********************************************************************
 127:GUI_X.c       **** *
 128:GUI_X.c       **** *       GUI_X_Systick_Intr
 129:GUI_X.c       **** *
 130:GUI_X.c       **** * Purpose:
 131:GUI_X.c       **** *   Interrupt Service Routine for Systick.
 132:GUI_X.c       **** */
 133:GUI_X.c       **** void GUI_X_Systick_Intr(void){    
  28              		.loc 1 133 0
  29              		.cfi_startproc
  30              		@ args = 0, pretend = 0, frame = 0
  31              		@ frame_needed = 0, uses_anonymous_args = 0
  32              		@ link register save eliminated.
 134:GUI_X.c       ****   OS_TimeMS++;
  33              		.loc 1 134 0
  34 0000 024A     		ldr	r2, .L2
  35 0002 1368     		ldr	r3, [r2]
  36 0004 0133     		adds	r3, r3, #1
  37 0006 1360     		str	r3, [r2]
ARM GAS  C:\Users\simon\AppData\Local\Temp\ccnhtYw5.s 			page 4


  38 0008 7047     		bx	lr
  39              	.L3:
  40 000a 00BF     		.align	2
  41              	.L2:
  42 000c 00000000 		.word	OS_TimeMS
  43              		.cfi_endproc
  44              	.LFE70:
  45              		.size	GUI_X_Systick_Intr, .-GUI_X_Systick_Intr
  46              		.section	.text.GUI_X_GetTime,"ax",%progbits
  47              		.align	2
  48              		.global	GUI_X_GetTime
  49              		.thumb
  50              		.thumb_func
  51              		.type	GUI_X_GetTime, %function
  52              	GUI_X_GetTime:
  53              	.LFB63:
  72:GUI_X.c       ****   return OS_TimeMS; 
  54              		.loc 1 72 0
  55              		.cfi_startproc
  56              		@ args = 0, pretend = 0, frame = 0
  57              		@ frame_needed = 0, uses_anonymous_args = 0
  58              		@ link register save eliminated.
  73:GUI_X.c       **** }
  59              		.loc 1 73 0
  60 0000 014B     		ldr	r3, .L5
  61 0002 1868     		ldr	r0, [r3]
  74:GUI_X.c       **** 
  62              		.loc 1 74 0
  63 0004 7047     		bx	lr
  64              	.L6:
  65 0006 00BF     		.align	2
  66              	.L5:
  67 0008 00000000 		.word	OS_TimeMS
  68              		.cfi_endproc
  69              	.LFE63:
  70              		.size	GUI_X_GetTime, .-GUI_X_GetTime
  71              		.section	.text.GUI_X_Delay,"ax",%progbits
  72              		.align	2
  73              		.global	GUI_X_Delay
  74              		.thumb
  75              		.thumb_func
  76              		.type	GUI_X_Delay, %function
  77              	GUI_X_Delay:
  78              	.LFB64:
  76:GUI_X.c       ****   int tEnd = OS_TimeMS + ms;
  79              		.loc 1 76 0
  80              		.cfi_startproc
  81              		@ args = 0, pretend = 0, frame = 0
  82              		@ frame_needed = 0, uses_anonymous_args = 0
  83              		@ link register save eliminated.
  84              	.LVL0:
  77:GUI_X.c       ****   while ((tEnd - OS_TimeMS) > 0);
  85              		.loc 1 77 0
  86 0000 044B     		ldr	r3, .L9
  87 0002 1B68     		ldr	r3, [r3]
  88 0004 1844     		add	r0, r0, r3
  89              	.LVL1:
ARM GAS  C:\Users\simon\AppData\Local\Temp\ccnhtYw5.s 			page 5


  90              	.L8:
  78:GUI_X.c       **** }
  91              		.loc 1 78 0 discriminator 1
  92 0006 034B     		ldr	r3, .L9
  93 0008 1B68     		ldr	r3, [r3]
  94 000a C31A     		subs	r3, r0, r3
  95 000c 002B     		cmp	r3, #0
  96 000e FADC     		bgt	.L8
  79:GUI_X.c       **** 
  97              		.loc 1 79 0
  98 0010 7047     		bx	lr
  99              	.L10:
 100 0012 00BF     		.align	2
 101              	.L9:
 102 0014 00000000 		.word	OS_TimeMS
 103              		.cfi_endproc
 104              	.LFE64:
 105              		.size	GUI_X_Delay, .-GUI_X_Delay
 106              		.section	.text.GUI_X_ExecIdle,"ax",%progbits
 107              		.align	2
 108              		.global	GUI_X_ExecIdle
 109              		.thumb
 110              		.thumb_func
 111              		.type	GUI_X_ExecIdle, %function
 112              	GUI_X_ExecIdle:
 113              	.LFB66:
 101:GUI_X.c       **** 
 114              		.loc 1 101 0
 115              		.cfi_startproc
 116              		@ args = 0, pretend = 0, frame = 0
 117              		@ frame_needed = 0, uses_anonymous_args = 0
 118              		@ link register save eliminated.
 119 0000 7047     		bx	lr
 120              		.cfi_endproc
 121              	.LFE66:
 122              		.size	GUI_X_ExecIdle, .-GUI_X_ExecIdle
 123 0002 00BF     		.section	.text.GUI_X_Log,"ax",%progbits
 124              		.align	2
 125              		.global	GUI_X_Log
 126              		.thumb
 127              		.thumb_func
 128              		.type	GUI_X_Log, %function
 129              	GUI_X_Log:
 130              	.LFB67:
 117:GUI_X.c       **** void GUI_X_Warn    (const char *s) { GUI_USE_PARA(s); }
 131              		.loc 1 117 0
 132              		.cfi_startproc
 133              		@ args = 0, pretend = 0, frame = 0
 134              		@ frame_needed = 0, uses_anonymous_args = 0
 135              		@ link register save eliminated.
 136              	.LVL2:
 137 0000 7047     		bx	lr
 138              		.cfi_endproc
 139              	.LFE67:
 140              		.size	GUI_X_Log, .-GUI_X_Log
 141 0002 00BF     		.section	.text.GUI_X_Warn,"ax",%progbits
 142              		.align	2
ARM GAS  C:\Users\simon\AppData\Local\Temp\ccnhtYw5.s 			page 6


 143              		.global	GUI_X_Warn
 144              		.thumb
 145              		.thumb_func
 146              		.type	GUI_X_Warn, %function
 147              	GUI_X_Warn:
 148              	.LFB68:
 118:GUI_X.c       **** void GUI_X_ErrorOut(const char *s) { GUI_USE_PARA(s); }
 149              		.loc 1 118 0
 150              		.cfi_startproc
 151              		@ args = 0, pretend = 0, frame = 0
 152              		@ frame_needed = 0, uses_anonymous_args = 0
 153              		@ link register save eliminated.
 154              	.LVL3:
 155 0000 7047     		bx	lr
 156              		.cfi_endproc
 157              	.LFE68:
 158              		.size	GUI_X_Warn, .-GUI_X_Warn
 159 0002 00BF     		.section	.text.GUI_X_ErrorOut,"ax",%progbits
 160              		.align	2
 161              		.global	GUI_X_ErrorOut
 162              		.thumb
 163              		.thumb_func
 164              		.type	GUI_X_ErrorOut, %function
 165              	GUI_X_ErrorOut:
 166              	.LFB69:
 119:GUI_X.c       **** 
 167              		.loc 1 119 0
 168              		.cfi_startproc
 169              		@ args = 0, pretend = 0, frame = 0
 170              		@ frame_needed = 0, uses_anonymous_args = 0
 171              		@ link register save eliminated.
 172              	.LVL4:
 173 0000 7047     		bx	lr
 174              		.cfi_endproc
 175              	.LFE69:
 176              		.size	GUI_X_ErrorOut, .-GUI_X_ErrorOut
 177 0002 00BF     		.section	.text.GUI_X_Systick_Init,"ax",%progbits
 178              		.align	2
 179              		.global	GUI_X_Systick_Init
 180              		.thumb
 181              		.thumb_func
 182              		.type	GUI_X_Systick_Init, %function
 183              	GUI_X_Systick_Init:
 184              	.LFB71:
 135:GUI_X.c       **** }
 136:GUI_X.c       **** 
 137:GUI_X.c       **** /*********************************************************************
 138:GUI_X.c       **** *
 139:GUI_X.c       **** *       GUI_X_Systick_Init()
 140:GUI_X.c       **** *
 141:GUI_X.c       **** * Purpose:
 142:GUI_X.c       **** *   Sets up the Systick interrupt and enable it.
 143:GUI_X.c       **** */
 144:GUI_X.c       **** void GUI_X_Systick_Init(void){  
 185              		.loc 1 144 0
 186              		.cfi_startproc
 187              		@ args = 0, pretend = 0, frame = 0
ARM GAS  C:\Users\simon\AppData\Local\Temp\ccnhtYw5.s 			page 7


 188              		@ frame_needed = 0, uses_anonymous_args = 0
 189              		.loc 1 144 0
 190 0000 10B5     		push	{r4, lr}
 191              		.cfi_def_cfa_offset 8
 192              		.cfi_offset 4, -8
 193              		.cfi_offset 14, -4
 145:GUI_X.c       ****   uint32_t i; 
 146:GUI_X.c       ****   CySysTickStart();
 194              		.loc 1 146 0
 195 0002 FFF7FEFF 		bl	CySysTickStart
 196              	.LVL5:
 147:GUI_X.c       ****   //
 148:GUI_X.c       ****   // Find unused callback slot.
 149:GUI_X.c       ****   //
 150:GUI_X.c       ****     for (i = 0u; i < CY_SYS_SYST_NUM_OF_CALLBACKS; i++)
 197              		.loc 1 150 0
 198 0006 0024     		movs	r4, #0
 199 0008 09E0     		b	.L16
 200              	.LVL6:
 201              	.L19:
 151:GUI_X.c       ****     {
 152:GUI_X.c       ****         if (CySysTickGetCallback(i) == NULL)
 202              		.loc 1 152 0
 203 000a 2046     		mov	r0, r4
 204 000c FFF7FEFF 		bl	CySysTickGetCallback
 205              	.LVL7:
 206 0010 20B9     		cbnz	r0, .L17
 153:GUI_X.c       ****         {
 154:GUI_X.c       ****             CySysTickSetCallback(i, GUI_X_Systick_Intr);
 207              		.loc 1 154 0
 208 0012 0749     		ldr	r1, .L22
 209 0014 2046     		mov	r0, r4
 210 0016 FFF7FEFF 		bl	CySysTickSetCallback
 211              	.LVL8:
 155:GUI_X.c       ****             break;
 212              		.loc 1 155 0
 213 001a 02E0     		b	.L18
 214              	.L17:
 150:GUI_X.c       ****     {
 215              		.loc 1 150 0 discriminator 2
 216 001c 0134     		adds	r4, r4, #1
 217              	.LVL9:
 218              	.L16:
 150:GUI_X.c       ****     {
 219              		.loc 1 150 0 is_stmt 0 discriminator 1
 220 001e 042C     		cmp	r4, #4
 221 0020 F3D9     		bls	.L19
 222              	.L18:
 156:GUI_X.c       ****         }
 157:GUI_X.c       ****     }
 158:GUI_X.c       ****     
 159:GUI_X.c       ****     CYASSERT(i < CY_SYS_SYST_NUM_OF_CALLBACKS);
 223              		.loc 1 159 0 is_stmt 1
 224 0022 042C     		cmp	r4, #4
 225 0024 02D9     		bls	.L15
 226              		.loc 1 159 0 is_stmt 0 discriminator 1
 227 0026 0020     		movs	r0, #0
ARM GAS  C:\Users\simon\AppData\Local\Temp\ccnhtYw5.s 			page 8


 228 0028 FFF7FEFF 		bl	CyHalt
 229              	.LVL10:
 230              	.L15:
 231 002c 10BD     		pop	{r4, pc}
 232              	.LVL11:
 233              	.L23:
 234 002e 00BF     		.align	2
 235              	.L22:
 236 0030 00000000 		.word	GUI_X_Systick_Intr
 237              		.cfi_endproc
 238              	.LFE71:
 239              		.size	GUI_X_Systick_Init, .-GUI_X_Systick_Init
 240              		.section	.text.GUI_X_Init,"ax",%progbits
 241              		.align	2
 242              		.global	GUI_X_Init
 243              		.thumb
 244              		.thumb_func
 245              		.type	GUI_X_Init, %function
 246              	GUI_X_Init:
 247              	.LFB65:
  89:GUI_X.c       ****   GUI_X_Systick_Init();
 248              		.loc 1 89 0 is_stmt 1
 249              		.cfi_startproc
 250              		@ args = 0, pretend = 0, frame = 0
 251              		@ frame_needed = 0, uses_anonymous_args = 0
 252 0000 08B5     		push	{r3, lr}
 253              		.cfi_def_cfa_offset 8
 254              		.cfi_offset 3, -8
 255              		.cfi_offset 14, -4
  90:GUI_X.c       **** }
 256              		.loc 1 90 0
 257 0002 FFF7FEFF 		bl	GUI_X_Systick_Init
 258              	.LVL12:
 259 0006 08BD     		pop	{r3, pc}
 260              		.cfi_endproc
 261              	.LFE65:
 262              		.size	GUI_X_Init, .-GUI_X_Init
 263              		.comm	OS_TimeMS,4,4
 264              		.text
 265              	.Letext0:
 266              		.file 2 "c:\\program files (x86)\\cypress\\psoc creator\\4.4\\psoc creator\\import\\gnu\\arm\\5.4.
 267              		.file 3 "c:\\program files (x86)\\cypress\\psoc creator\\4.4\\psoc creator\\import\\gnu\\arm\\5.4.
 268              		.file 4 "Generated_Source\\PSoC5/cytypes.h"
 269              		.file 5 "Generated_Source\\PSoC5/core_cm3.h"
 270              		.file 6 "Generated_Source\\PSoC5/CyLib.h"