ARM GAS  C:\Users\simon\AppData\Local\Temp\ccNM3IaN.s 			page 1


   1              		.syntax unified
   2              		.cpu cortex-m3
   3              		.fpu softvfp
   4              		.eabi_attribute 20, 1
   5              		.eabi_attribute 21, 1
   6              		.eabi_attribute 23, 3
   7              		.eabi_attribute 24, 1
   8              		.eabi_attribute 25, 1
   9              		.eabi_attribute 26, 1
  10              		.eabi_attribute 30, 1
  11              		.eabi_attribute 34, 1
  12              		.eabi_attribute 18, 4
  13              		.thumb
  14              		.syntax unified
  15              		.file	"LCDConf.c"
  16              		.text
  17              	.Ltext0:
  18              		.cfi_sections	.debug_frame
  19              		.section	.text._InitController,"ax",%progbits
  20              		.align	2
  21              		.thumb
  22              		.thumb_func
  23              		.type	_InitController, %function
  24              	_InitController:
  25              	.LFB63:
  26              		.file 1 "LCDConf.c"
   1:LCDConf.c     **** /*********************************************************************
   2:LCDConf.c     **** *                SEGGER Microcontroller GmbH & Co. KG                *
   3:LCDConf.c     **** *        Solutions for real time microcontroller applications        *
   4:LCDConf.c     **** **********************************************************************
   5:LCDConf.c     **** *                                                                    *
   6:LCDConf.c     **** *        (c) 1996 - 2017  SEGGER Microcontroller GmbH & Co. KG       *
   7:LCDConf.c     **** *                                                                    *
   8:LCDConf.c     **** *        Internet: www.segger.com    Support:  support@segger.com    *
   9:LCDConf.c     **** *                                                                    *
  10:LCDConf.c     **** **********************************************************************
  11:LCDConf.c     **** 
  12:LCDConf.c     **** ** emWin V5.46 - Graphical user interface for embedded applications **
  13:LCDConf.c     **** All  Intellectual Property rights  in the Software belongs to  SEGGER.
  14:LCDConf.c     **** emWin is protected by  international copyright laws.  Knowledge of the
  15:LCDConf.c     **** source code may not be used to write a similar product.  This file may
  16:LCDConf.c     **** only be used in accordance with the following terms:
  17:LCDConf.c     **** 
  18:LCDConf.c     **** The software  has been licensed to  Cypress Semiconductor Corporation,
  19:LCDConf.c     **** whose registered  office is situated  at 198 Champion Ct. San Jose, CA 
  20:LCDConf.c     **** 95134 USA  solely for the  purposes of creating  libraries for Cypress
  21:LCDConf.c     **** PSoC3 and  PSoC5 processor-based devices,  sublicensed and distributed
  22:LCDConf.c     **** under  the  terms  and  conditions  of  the  Cypress  End User License
  23:LCDConf.c     **** Agreement.
  24:LCDConf.c     **** Full source code is available at: www.segger.com
  25:LCDConf.c     **** 
  26:LCDConf.c     **** We appreciate your understanding and fairness.
  27:LCDConf.c     **** ----------------------------------------------------------------------
  28:LCDConf.c     **** Licensing information
  29:LCDConf.c     **** Licensor:                 SEGGER Microcontroller Systems LLC
  30:LCDConf.c     **** Licensed to:              Cypress Semiconductor Corp, 198 Champion Ct., San Jose, CA 95134, USA
  31:LCDConf.c     **** Licensed SEGGER software: emWin
ARM GAS  C:\Users\simon\AppData\Local\Temp\ccNM3IaN.s 			page 2


  32:LCDConf.c     **** License number:           GUI-00319
  33:LCDConf.c     **** License model:            Services and License Agreement, signed June 10th, 2009
  34:LCDConf.c     **** Licensed platform:        Any Cypress platform (Initial targets are: PSoC3, PSoC5)
  35:LCDConf.c     **** ----------------------------------------------------------------------
  36:LCDConf.c     **** Support and Update Agreement (SUA)
  37:LCDConf.c     **** SUA period:               2009-06-12 - 2022-07-27
  38:LCDConf.c     **** Contact to extend SUA:    sales@segger.com
  39:LCDConf.c     **** ----------------------------------------------------------------------
  40:LCDConf.c     **** File        : LCDConf.c
  41:LCDConf.c     **** Purpose     : Display controller configuration (single layer)
  42:LCDConf.c     **** ---------------------------END-OF-HEADER------------------------------
  43:LCDConf.c     **** */
  44:LCDConf.c     **** 
  45:LCDConf.c     **** #include "project.h" 
  46:LCDConf.c     **** 
  47:LCDConf.c     **** #include "GUI.h"
  48:LCDConf.c     **** #include "GUIDRV_FlexColor.h"
  49:LCDConf.c     **** 
  50:LCDConf.c     **** #include "tft.h"
  51:LCDConf.c     **** 
  52:LCDConf.c     **** /*********************************************************************
  53:LCDConf.c     **** *
  54:LCDConf.c     **** *       Layer configuration (to be modified)
  55:LCDConf.c     **** *
  56:LCDConf.c     **** **********************************************************************
  57:LCDConf.c     **** */
  58:LCDConf.c     **** //
  59:LCDConf.c     **** // Physical display size
  60:LCDConf.c     **** //   The display size should be adapted in order to match the size of
  61:LCDConf.c     **** //   the target display.
  62:LCDConf.c     **** //
  63:LCDConf.c     **** #define XSIZE_PHYS 240
  64:LCDConf.c     **** #define YSIZE_PHYS 320
  65:LCDConf.c     **** #define LCD_CONTROLLER GUIDRV_FLEXCOLOR_F66709
  66:LCDConf.c     **** 
  67:LCDConf.c     **** 
  68:LCDConf.c     **** 
  69:LCDConf.c     **** //
  70:LCDConf.c     **** // Color conversion
  71:LCDConf.c     **** //   The color conversion functions should be selected according to
  72:LCDConf.c     **** //   the color mode of the target display. Details can be found in
  73:LCDConf.c     **** //   the chapter "Colors" in the emWin user manual.
  74:LCDConf.c     **** //
  75:LCDConf.c     **** #define COLOR_CONVERSION GUICC_M565
  76:LCDConf.c     **** 
  77:LCDConf.c     **** //
  78:LCDConf.c     **** // Display driver
  79:LCDConf.c     **** //
  80:LCDConf.c     **** #define DISPLAY_DRIVER GUIDRV_FLEXCOLOR
  81:LCDConf.c     **** 
  82:LCDConf.c     **** /*********************************************************************
  83:LCDConf.c     **** *
  84:LCDConf.c     **** *       Configuration checking
  85:LCDConf.c     **** *
  86:LCDConf.c     **** **********************************************************************
  87:LCDConf.c     **** */
  88:LCDConf.c     **** #ifndef   VXSIZE_PHYS
ARM GAS  C:\Users\simon\AppData\Local\Temp\ccNM3IaN.s 			page 3


  89:LCDConf.c     ****   #define VXSIZE_PHYS XSIZE_PHYS
  90:LCDConf.c     **** #endif
  91:LCDConf.c     **** #ifndef   VYSIZE_PHYS
  92:LCDConf.c     ****   #define VYSIZE_PHYS YSIZE_PHYS
  93:LCDConf.c     **** #endif
  94:LCDConf.c     **** #ifndef   XSIZE_PHYS
  95:LCDConf.c     ****   #error Physical X size of display is not defined!
  96:LCDConf.c     **** #endif
  97:LCDConf.c     **** #ifndef   YSIZE_PHYS
  98:LCDConf.c     ****   #error Physical Y size of display is not defined!
  99:LCDConf.c     **** #endif
 100:LCDConf.c     **** #ifndef   COLOR_CONVERSION
 101:LCDConf.c     ****   #error Color conversion not defined!
 102:LCDConf.c     **** #endif
 103:LCDConf.c     **** #ifndef   DISPLAY_DRIVER
 104:LCDConf.c     ****   #error No display driver defined!
 105:LCDConf.c     **** #endif
 106:LCDConf.c     **** 
 107:LCDConf.c     **** /********************************************************************
 108:LCDConf.c     **** *
 109:LCDConf.c     **** *       _InitController
 110:LCDConf.c     **** *
 111:LCDConf.c     **** * Purpose:
 112:LCDConf.c     **** *   Initializes the LCD controller
 113:LCDConf.c     **** *
 114:LCDConf.c     **** */
 115:LCDConf.c     **** static void _InitController(void) {
  27              		.loc 1 115 0
  28              		.cfi_startproc
  29              		@ args = 0, pretend = 0, frame = 0
  30              		@ frame_needed = 0, uses_anonymous_args = 0
  31 0000 08B5     		push	{r3, lr}
  32              		.cfi_def_cfa_offset 8
  33              		.cfi_offset 3, -8
  34              		.cfi_offset 14, -4
 116:LCDConf.c     ****   /* Set up the display controller and put it into operation. If the 
 117:LCDConf.c     ****   *  display controller is not initialized by any external routine 
 118:LCDConf.c     ****   *  this needs to be adapted by the customer.
 119:LCDConf.c     ****   */
 120:LCDConf.c     ****     tftStart();
  35              		.loc 1 120 0
  36 0002 FFF7FEFF 		bl	tftStart
  37              	.LVL0:
  38 0006 08BD     		pop	{r3, pc}
  39              		.cfi_endproc
  40              	.LFE63:
  41              		.size	_InitController, .-_InitController
  42              		.section	.text.LCD_X_Config,"ax",%progbits
  43              		.align	2
  44              		.global	LCD_X_Config
  45              		.thumb
  46              		.thumb_func
  47              		.type	LCD_X_Config, %function
  48              	LCD_X_Config:
  49              	.LFB64:
 121:LCDConf.c     **** }
 122:LCDConf.c     **** 
ARM GAS  C:\Users\simon\AppData\Local\Temp\ccNM3IaN.s 			page 4


 123:LCDConf.c     **** /*********************************************************************
 124:LCDConf.c     **** *
 125:LCDConf.c     **** *       Public code
 126:LCDConf.c     **** *
 127:LCDConf.c     **** **********************************************************************
 128:LCDConf.c     **** */
 129:LCDConf.c     **** /*********************************************************************
 130:LCDConf.c     **** *
 131:LCDConf.c     **** *       LCD_X_Config
 132:LCDConf.c     **** *
 133:LCDConf.c     **** * Function description
 134:LCDConf.c     **** *   Called during the initialization process in order to set up the
 135:LCDConf.c     **** *   display driver configuration.
 136:LCDConf.c     **** */
 137:LCDConf.c     **** void LCD_X_Config(void) {
  50              		.loc 1 137 0
  51              		.cfi_startproc
  52              		@ args = 0, pretend = 0, frame = 128
  53              		@ frame_needed = 0, uses_anonymous_args = 0
  54 0000 30B5     		push	{r4, r5, lr}
  55              		.cfi_def_cfa_offset 12
  56              		.cfi_offset 4, -12
  57              		.cfi_offset 5, -8
  58              		.cfi_offset 14, -4
  59 0002 A1B0     		sub	sp, sp, #132
  60              		.cfi_def_cfa_offset 144
 138:LCDConf.c     ****   GUI_DEVICE * pDevice;
 139:LCDConf.c     ****   CONFIG_FLEXCOLOR Config = {0};
  61              		.loc 1 139 0
  62 0004 0024     		movs	r4, #0
  63 0006 1B94     		str	r4, [sp, #108]
  64 0008 1C94     		str	r4, [sp, #112]
  65 000a 1D94     		str	r4, [sp, #116]
  66 000c 1E94     		str	r4, [sp, #120]
  67 000e 1F94     		str	r4, [sp, #124]
 140:LCDConf.c     ****   GUI_PORT_API PortAPI = {0};
  68              		.loc 1 140 0
  69 0010 6822     		movs	r2, #104
  70 0012 2146     		mov	r1, r4
  71 0014 01A8     		add	r0, sp, #4
  72 0016 FFF7FEFF 		bl	memset
  73              	.LVL1:
 141:LCDConf.c     ****   //
 142:LCDConf.c     ****   // Set the display driver and color conversion
 143:LCDConf.c     ****   //
 144:LCDConf.c     ****   pDevice = GUI_DEVICE_CreateAndLink(DISPLAY_DRIVER, COLOR_CONVERSION, 0, 0);
  74              		.loc 1 144 0
  75 001a 2346     		mov	r3, r4
  76 001c 2246     		mov	r2, r4
  77 001e 1449     		ldr	r1, .L5
  78 0020 1448     		ldr	r0, .L5+4
  79 0022 FFF7FEFF 		bl	GUI_DEVICE_CreateAndLink
  80              	.LVL2:
  81 0026 0546     		mov	r5, r0
  82              	.LVL3:
 145:LCDConf.c     ****   //
 146:LCDConf.c     ****   // Display driver configuration
ARM GAS  C:\Users\simon\AppData\Local\Temp\ccNM3IaN.s 			page 5


 147:LCDConf.c     ****   //
 148:LCDConf.c     ****   LCD_SetSizeEx    (0, XSIZE_PHYS,   YSIZE_PHYS);
  83              		.loc 1 148 0
  84 0028 4FF4A072 		mov	r2, #320
  85 002c F021     		movs	r1, #240
  86 002e 2046     		mov	r0, r4
  87              	.LVL4:
  88 0030 FFF7FEFF 		bl	LCD_SetSizeEx
  89              	.LVL5:
 149:LCDConf.c     ****   LCD_SetVSizeEx   (0, VXSIZE_PHYS,  VYSIZE_PHYS);
  90              		.loc 1 149 0
  91 0034 4FF4A072 		mov	r2, #320
  92 0038 F021     		movs	r1, #240
  93 003a 2046     		mov	r0, r4
  94 003c FFF7FEFF 		bl	LCD_SetVSizeEx
  95              	.LVL6:
 150:LCDConf.c     ****   //
 151:LCDConf.c     ****   // Orientation
 152:LCDConf.c     ****   //
 153:LCDConf.c     ****   Config.Orientation = GUI_MIRROR_Y;
  96              		.loc 1 153 0
  97 0040 0223     		movs	r3, #2
  98 0042 1D93     		str	r3, [sp, #116]
 154:LCDConf.c     **** 
 155:LCDConf.c     ****   GUIDRV_FlexColor_Config(pDevice, &Config);
  99              		.loc 1 155 0
 100 0044 1BA9     		add	r1, sp, #108
 101 0046 2846     		mov	r0, r5
 102 0048 FFF7FEFF 		bl	GUIDRV_FlexColor_Config
 103              	.LVL7:
 156:LCDConf.c     ****   //
 157:LCDConf.c     ****   // Set controller and operation mode
 158:LCDConf.c     ****   //
 159:LCDConf.c     ****   PortAPI.pfWrite8_A0 = write8_a0;
 104              		.loc 1 159 0
 105 004c 0A4B     		ldr	r3, .L5+8
 106 004e 0193     		str	r3, [sp, #4]
 160:LCDConf.c     ****   PortAPI.pfWrite8_A1 = write8_a1;
 107              		.loc 1 160 0
 108 0050 0A4B     		ldr	r3, .L5+12
 109 0052 0293     		str	r3, [sp, #8]
 161:LCDConf.c     ****   PortAPI.pfWriteM8_A1 = writeM8_a1;
 110              		.loc 1 161 0
 111 0054 0A4B     		ldr	r3, .L5+16
 112 0056 0493     		str	r3, [sp, #16]
 162:LCDConf.c     ****   PortAPI.pfRead8_A1 = read8_a1;
 113              		.loc 1 162 0
 114 0058 0A4B     		ldr	r3, .L5+20
 115 005a 0693     		str	r3, [sp, #24]
 163:LCDConf.c     ****   PortAPI.pfReadM8_A1 = readM8_a1;
 116              		.loc 1 163 0
 117 005c 0A4B     		ldr	r3, .L5+24
 118 005e 0893     		str	r3, [sp, #32]
 164:LCDConf.c     ****   
 165:LCDConf.c     ****   GUIDRV_FlexColor_SetFunc(pDevice, &PortAPI, LCD_CONTROLLER, GUIDRV_FLEXCOLOR_M16C0B8);
 119              		.loc 1 165 0
 120 0060 0A4B     		ldr	r3, .L5+28
ARM GAS  C:\Users\simon\AppData\Local\Temp\ccNM3IaN.s 			page 6


 121 0062 0B4A     		ldr	r2, .L5+32
 122 0064 01A9     		add	r1, sp, #4
 123 0066 2846     		mov	r0, r5
 124 0068 FFF7FEFF 		bl	GUIDRV_FlexColor_SetFunc
 125              	.LVL8:
 166:LCDConf.c     **** }
 126              		.loc 1 166 0
 127 006c 21B0     		add	sp, sp, #132
 128              		.cfi_def_cfa_offset 12
 129              		@ sp needed
 130 006e 30BD     		pop	{r4, r5, pc}
 131              	.LVL9:
 132              	.L6:
 133              		.align	2
 134              	.L5:
 135 0070 00000000 		.word	LCD_API_ColorConv_M565
 136 0074 00000000 		.word	GUIDRV_FlexColor_API
 137 0078 00000000 		.word	write8_a0
 138 007c 00000000 		.word	write8_a1
 139 0080 00000000 		.word	writeM8_a1
 140 0084 00000000 		.word	read8_a1
 141 0088 00000000 		.word	readM8_a1
 142 008c 00000000 		.word	GUIDRV_FlexColor_SetMode16bppC0B8
 143 0090 00000000 		.word	GUIDRV_FlexColor_SetFunc66709
 144              		.cfi_endproc
 145              	.LFE64:
 146              		.size	LCD_X_Config, .-LCD_X_Config
 147              		.section	.text.LCD_X_DisplayDriver,"ax",%progbits
 148              		.align	2
 149              		.global	LCD_X_DisplayDriver
 150              		.thumb
 151              		.thumb_func
 152              		.type	LCD_X_DisplayDriver, %function
 153              	LCD_X_DisplayDriver:
 154              	.LFB65:
 167:LCDConf.c     **** 
 168:LCDConf.c     **** /*********************************************************************
 169:LCDConf.c     **** *
 170:LCDConf.c     **** *       LCD_X_DisplayDriver
 171:LCDConf.c     **** *
 172:LCDConf.c     **** * Purpose:
 173:LCDConf.c     **** *   This function is called by the display driver for several purposes.
 174:LCDConf.c     **** *   To support the according task, the routine needs to be adapted to
 175:LCDConf.c     **** *   the display controller. Note that the commands marked
 176:LCDConf.c     **** *   "optional" are not cogently required and should only be adapted if 
 177:LCDConf.c     **** *   the display controller supports these features.
 178:LCDConf.c     **** *
 179:LCDConf.c     **** * Parameter:
 180:LCDConf.c     **** *   LayerIndex - Zero based layer index
 181:LCDConf.c     **** *   Cmd        - Command to be executed
 182:LCDConf.c     **** *   pData      - Pointer to a data structure.
 183:LCDConf.c     **** * 
 184:LCDConf.c     **** * Return Value:
 185:LCDConf.c     **** *   < -1 - Error
 186:LCDConf.c     **** *     -1 - The command is not handled.
 187:LCDConf.c     **** *      0 - OK.
 188:LCDConf.c     **** */
ARM GAS  C:\Users\simon\AppData\Local\Temp\ccNM3IaN.s 			page 7


 189:LCDConf.c     **** int LCD_X_DisplayDriver(unsigned LayerIndex, unsigned Cmd, void * pData) {
 155              		.loc 1 189 0
 156              		.cfi_startproc
 157              		@ args = 0, pretend = 0, frame = 0
 158              		@ frame_needed = 0, uses_anonymous_args = 0
 159              	.LVL10:
 190:LCDConf.c     ****   int r;
 191:LCDConf.c     ****   
 192:LCDConf.c     ****   GUI_USE_PARA(LayerIndex);
 193:LCDConf.c     ****   GUI_USE_PARA(pData);
 194:LCDConf.c     ****   
 195:LCDConf.c     ****   switch (Cmd) {
 160              		.loc 1 195 0
 161 0000 0129     		cmp	r1, #1
 162 0002 04D1     		bne	.L11
 189:LCDConf.c     ****   int r;
 163              		.loc 1 189 0
 164 0004 08B5     		push	{r3, lr}
 165              		.cfi_def_cfa_offset 8
 166              		.cfi_offset 3, -8
 167              		.cfi_offset 14, -4
 196:LCDConf.c     ****   case LCD_X_INITCONTROLLER: {
 197:LCDConf.c     ****     //
 198:LCDConf.c     ****     // Called during the initialization process in order to set up the
 199:LCDConf.c     ****     // display controller and put it into operation. If the display
 200:LCDConf.c     ****     // controller is not initialized by any external routine, this needs
 201:LCDConf.c     ****     // to be adapted by the customer...
 202:LCDConf.c     ****     //
 203:LCDConf.c     ****     // ...
 204:LCDConf.c     ****     _InitController();
 168              		.loc 1 204 0
 169 0006 FFF7FEFF 		bl	_InitController
 170              	.LVL11:
 205:LCDConf.c     ****     return 0;
 171              		.loc 1 205 0
 172 000a 0020     		movs	r0, #0
 173 000c 08BD     		pop	{r3, pc}
 174              	.LVL12:
 175              	.L11:
 176              		.cfi_def_cfa_offset 0
 177              		.cfi_restore 3
 178              		.cfi_restore 14
 206:LCDConf.c     ****   }
 207:LCDConf.c     ****   default:
 208:LCDConf.c     ****     r = -1;
 209:LCDConf.c     ****   }
 210:LCDConf.c     ****   return r;
 179              		.loc 1 210 0
 180 000e 4FF0FF30 		mov	r0, #-1
 181              	.LVL13:
 182 0012 7047     		bx	lr
 183              		.cfi_endproc
 184              	.LFE65:
 185              		.size	LCD_X_DisplayDriver, .-LCD_X_DisplayDriver
 186              		.text
 187              	.Letext0:
 188              		.file 2 "c:\\program files (x86)\\cypress\\psoc creator\\4.4\\psoc creator\\import\\gnu\\arm\\5.4.
ARM GAS  C:\Users\simon\AppData\Local\Temp\ccNM3IaN.s 			page 8


 189              		.file 3 "c:\\program files (x86)\\cypress\\psoc creator\\4.4\\psoc creator\\import\\gnu\\arm\\5.4.
 190              		.file 4 "..\\..\\emWinGraphics_v5_46\\Code\\Include\\PSoC4_5/LCD.h"
 191              		.file 5 "..\\..\\emWinGraphics_v5_46\\Code\\Include\\PSoC4_5/GUI.h"
 192              		.file 6 "..\\..\\emWinGraphics_v5_46\\Code\\Include\\PSoC4_5/GUI_Type.h"
 193              		.file 7 "GUIDRV_FlexColor.h"
 194              		.file 8 "Generated_Source\\PSoC5/core_cm3.h"
 195              		.file 9 "tft.h"