ARM GAS  C:\Users\simon\AppData\Local\Temp\ccnYhktc.s 			page 1


   1              		.syntax unified
   2              		.cpu cortex-m3
   3              		.fpu softvfp
   4              		.eabi_attribute 20, 1
   5              		.eabi_attribute 21, 1
   6              		.eabi_attribute 23, 3
   7              		.eabi_attribute 24, 1
   8              		.eabi_attribute 25, 1
   9              		.eabi_attribute 26, 1
  10              		.eabi_attribute 30, 1
  11              		.eabi_attribute 34, 1
  12              		.eabi_attribute 18, 4
  13              		.thumb
  14              		.syntax unified
  15              		.file	"main.c"
  16              		.text
  17              	.Ltext0:
  18              		.cfi_sections	.debug_frame
  19              		.section	.text.Waveform_ISR,"ax",%progbits
  20              		.align	2
  21              		.global	Waveform_ISR
  22              		.thumb
  23              		.thumb_func
  24              		.type	Waveform_ISR, %function
  25              	Waveform_ISR:
  26              	.LFB63:
  27              		.file 1 "main.c"
   1:main.c        **** /* ========================================
   2:main.c        ****  *
   3:main.c        ****  * Copyright YOUR COMPANY, THE YEAR
   4:main.c        ****  * All Rights Reserved
   5:main.c        ****  * UNPUBLISHED, LICENSED SOFTWARE.
   6:main.c        ****  *
   7:main.c        ****  * CONFIDENTIAL AND PROPRIETARY INFORMATION
   8:main.c        ****  * WHICH IS THE PROPERTY OF your company.
   9:main.c        ****  *
  10:main.c        ****  * ========================================
  11:main.c        **** */
  12:main.c        **** #include <project.h>
  13:main.c        **** #include "waveforms.h"
  14:main.c        **** #include "GUI.h"
  15:main.c        **** #include "tft.h" 
  16:main.c        **** 
  17:main.c        **** enum Note {
  18:main.c        ****     Bb1, B1, C2, Csharp2, D2, Dsharp2, E2, F2, Fsharp2, G2, Gsharp2, A2,
  19:main.c        ****     Bb2, B2, C3, Csharp3, D3, Dsharp3, E3, F3, Fsharp3, G3, Gsharp3, A3,
  20:main.c        ****     Bb3, B3, C4, Csharp4
  21:main.c        **** };
  22:main.c        **** void DisplayInit(void);
  23:main.c        **** void displayNotes(void);
  24:main.c        **** 
  25:main.c        **** volatile uint32_t waveformIndex = 0;
  26:main.c        **** volatile uint16_t waveVal = 0;
  27:main.c        **** volatile uint8_t volume = 0;
  28:main.c        **** volatile enum Waveform waveform_select = Default;
  29:main.c        **** uint16_t* waveforms[4] = {beginning_waveform, repeat_waveform, end_waveform, default_waveform};
  30:main.c        **** uint16 periods[28] = {4110, 3879, 3662, 3455, 3262, 3078, 2906, 2742, 2589, 2444, 2306, 2177, 2054,
ARM GAS  C:\Users\simon\AppData\Local\Temp\ccnYhktc.s 			page 2


  31:main.c        **** volatile uint16_t key_status = 0;
  32:main.c        **** 
  33:main.c        **** volatile enum Note note = Csharp3;
  34:main.c        **** 
  35:main.c        **** volatile uint8 isChange = 0;
  36:main.c        **** 
  37:main.c        **** enum Note desired_notes[16] = {E3, E3, F3, G3, G3, F3, E3, D3, C3, C3, D3, E3, E3, D3, D3, D3};
  38:main.c        **** uint8 note_locations[16] = {30, 40, 50, 60, 80, 90, 100, 110, 130, 140, 150, 160, 180, 190, 200, 20
  39:main.c        **** volatile uint8 desired_note_index = 0; 
  40:main.c        **** volatile uint8 old_location = 0; 
  41:main.c        **** uint8 song_length = 16;
  42:main.c        **** volatile int16 volumeControl = 0;
  43:main.c        **** 
  44:main.c        **** CY_ISR(Waveform_ISR) {
  28              		.loc 1 44 0
  29              		.cfi_startproc
  30              		@ args = 0, pretend = 0, frame = 0
  31              		@ frame_needed = 0, uses_anonymous_args = 0
  32 0000 38B5     		push	{r3, r4, r5, lr}
  33              		.cfi_def_cfa_offset 16
  34              		.cfi_offset 3, -16
  35              		.cfi_offset 4, -12
  36              		.cfi_offset 5, -8
  37              		.cfi_offset 14, -4
  45:main.c        ****     
  46:main.c        ****     // Toggle the digital pin
  47:main.c        ****     Fs_Write(~Fs_Read());
  38              		.loc 1 47 0
  39 0002 FFF7FEFF 		bl	Fs_Read
  40              	.LVL0:
  41 0006 C043     		mvns	r0, r0
  42 0008 C0B2     		uxtb	r0, r0
  43 000a FFF7FEFF 		bl	Fs_Write
  44              	.LVL1:
  48:main.c        ****     
  49:main.c        ****     // Update DAC output with the next value from the waveform
  50:main.c        ****     waveVal = (waveforms[waveform_select][waveformIndex]*volume) + 1024;
  45              		.loc 1 50 0
  46 000e 1B4D     		ldr	r5, .L7
  47 0010 2B78     		ldrb	r3, [r5]	@ zero_extendqisi2
  48 0012 05EB8303 		add	r3, r5, r3, lsl #2
  49 0016 5B68     		ldr	r3, [r3, #4]
  50 0018 194C     		ldr	r4, .L7+4
  51 001a 2268     		ldr	r2, [r4]
  52 001c 33F81220 		ldrh	r2, [r3, r2, lsl #1]
  53 0020 2379     		ldrb	r3, [r4, #4]	@ zero_extendqisi2
  54 0022 03FB02F3 		mul	r3, r3, r2
  55 0026 03F58063 		add	r3, r3, #1024
  56 002a 9BB2     		uxth	r3, r3
  57 002c E380     		strh	r3, [r4, #6]	@ movhi
  51:main.c        ****     Wave_Out_SetValue(waveVal);
  58              		.loc 1 51 0
  59 002e E088     		ldrh	r0, [r4, #6]
  60 0030 80B2     		uxth	r0, r0
  61 0032 FFF7FEFF 		bl	Wave_Out_SetValue
  62              	.LVL2:
  52:main.c        ****     
ARM GAS  C:\Users\simon\AppData\Local\Temp\ccnYhktc.s 			page 3


  53:main.c        ****     // Increment waveform index for the next interrupt
  54:main.c        ****     waveformIndex++;
  63              		.loc 1 54 0
  64 0036 2368     		ldr	r3, [r4]
  65 0038 0133     		adds	r3, r3, #1
  66 003a 2360     		str	r3, [r4]
  55:main.c        ****     
  56:main.c        ****     // Update the waveform counter if overflowed
  57:main.c        ****     if (waveformIndex >= waveform_sizes[waveform_select]) {
  67              		.loc 1 57 0
  68 003c 2A78     		ldrb	r2, [r5]	@ zero_extendqisi2
  69 003e 114B     		ldr	r3, .L7+8
  70 0040 53F82220 		ldr	r2, [r3, r2, lsl #2]
  71 0044 2368     		ldr	r3, [r4]
  72 0046 9A42     		cmp	r2, r3
  73 0048 14D8     		bhi	.L2
  58:main.c        ****         // Reset the counter
  59:main.c        ****         waveformIndex = 0;
  74              		.loc 1 59 0
  75 004a 0022     		movs	r2, #0
  76 004c 2260     		str	r2, [r4]
  60:main.c        ****         
  61:main.c        ****         switch (waveform_select) {
  77              		.loc 1 61 0
  78 004e 2B78     		ldrb	r3, [r5]	@ zero_extendqisi2
  79 0050 DBB2     		uxtb	r3, r3
  80 0052 012B     		cmp	r3, #1
  81 0054 07D0     		beq	.L3
  82 0056 13B1     		cbz	r3, .L4
  83 0058 022B     		cmp	r3, #2
  84 005a 08D0     		beq	.L5
  85 005c 0AE0     		b	.L2
  86              	.L4:
  62:main.c        ****             case Beginning:
  63:main.c        ****                 waveform_select = Repeat; // Moves onto the repeat waveform
  87              		.loc 1 63 0
  88 005e 0122     		movs	r2, #1
  89 0060 064B     		ldr	r3, .L7
  90 0062 1A70     		strb	r2, [r3]
  64:main.c        ****                 break;
  91              		.loc 1 64 0
  92 0064 06E0     		b	.L2
  93              	.L3:
  65:main.c        ****             case Repeat:
  66:main.c        ****                 waveform_select = End; // Moves onto the end waveform if a button is pressed
  94              		.loc 1 66 0
  95 0066 0222     		movs	r2, #2
  96 0068 044B     		ldr	r3, .L7
  97 006a 1A70     		strb	r2, [r3]
  67:main.c        ****                 break;
  98              		.loc 1 67 0
  99 006c 02E0     		b	.L2
 100              	.L5:
  68:main.c        ****             case End:
  69:main.c        ****                 waveform_select = Default;               
 101              		.loc 1 69 0
 102 006e 0322     		movs	r2, #3
ARM GAS  C:\Users\simon\AppData\Local\Temp\ccnYhktc.s 			page 4


 103 0070 024B     		ldr	r3, .L7
 104 0072 1A70     		strb	r2, [r3]
 105              	.L2:
  70:main.c        ****                 break;
  71:main.c        ****             case Default:
  72:main.c        ****                 break; 
  73:main.c        ****         }
  74:main.c        ****     }
  75:main.c        ****     
  76:main.c        ****     // Resets the TC flag
  77:main.c        ****     Waveform_Send_ReadStatusRegister();
 106              		.loc 1 77 0
 107 0074 FFF7FEFF 		bl	Waveform_Send_ReadStatusRegister
 108              	.LVL3:
 109 0078 38BD     		pop	{r3, r4, r5, pc}
 110              	.L8:
 111 007a 00BF     		.align	2
 112              	.L7:
 113 007c 00000000 		.word	.LANCHOR0
 114 0080 00000000 		.word	.LANCHOR1
 115 0084 00000000 		.word	waveform_sizes
 116              		.cfi_endproc
 117              	.LFE63:
 118              		.size	Waveform_ISR, .-Waveform_ISR
 119              		.section	.text.Button_ISR,"ax",%progbits
 120              		.align	2
 121              		.global	Button_ISR
 122              		.thumb
 123              		.thumb_func
 124              		.type	Button_ISR, %function
 125              	Button_ISR:
 126              	.LFB64:
  78:main.c        **** }
  79:main.c        **** 
  80:main.c        **** CY_ISR(Button_ISR) {
 127              		.loc 1 80 0
 128              		.cfi_startproc
 129              		@ args = 0, pretend = 0, frame = 0
 130              		@ frame_needed = 0, uses_anonymous_args = 0
 131 0000 10B5     		push	{r4, lr}
 132              		.cfi_def_cfa_offset 8
 133              		.cfi_offset 4, -8
 134              		.cfi_offset 14, -4
  81:main.c        ****     
  82:main.c        ****     key_status = ((uint16_t)KeyNote_High_Read()  << 8) | KeyNote_Low_Read(); // get the values of k
 135              		.loc 1 82 0
 136 0002 FFF7FEFF 		bl	KeyNote_High_Read
 137              	.LVL4:
 138 0006 0402     		lsls	r4, r0, #8
 139 0008 FFF7FEFF 		bl	KeyNote_Low_Read
 140              	.LVL5:
 141 000c 2043     		orrs	r0, r0, r4
 142 000e 80B2     		uxth	r0, r0
 143 0010 7A4B     		ldr	r3, .L47
 144 0012 1881     		strh	r0, [r3, #8]	@ movhi
  83:main.c        ****     
  84:main.c        ****     // bit 13 is key 1 in the note table, bit 0 is key 14
ARM GAS  C:\Users\simon\AppData\Local\Temp\ccnYhktc.s 			page 5


  85:main.c        ****     switch (key_status) {
 145              		.loc 1 85 0
 146 0014 1B89     		ldrh	r3, [r3, #8]
 147 0016 9BB2     		uxth	r3, r3
 148 0018 43F68802 		movw	r2, #14472
 149 001c 9342     		cmp	r3, r2
 150 001e 00F0C980 		beq	.L11
 151 0022 37D8     		bhi	.L12
 152 0024 B3F5405F 		cmp	r3, #12288
 153 0028 00F09880 		beq	.L13
 154 002c 18D8     		bhi	.L14
 155 002e B3F5805F 		cmp	r3, #4096
 156 0032 00F09F80 		beq	.L15
 157 0036 06D8     		bhi	.L16
 158 0038 002B     		cmp	r3, #0
 159 003a 00F09F80 		beq	.L17
 160 003e 802B     		cmp	r3, #128
 161 0040 00F0CC80 		beq	.L18
 162 0044 CDE0     		b	.L10
 163              	.L16:
 164 0046 B3F5005F 		cmp	r3, #8192
 165 004a 00F08F80 		beq	.L19
 166 004e B3F5025F 		cmp	r3, #8320
 167 0052 00F0BB80 		beq	.L20
 168 0056 B3F5845F 		cmp	r3, #4224
 169 005a 40F0C280 		bne	.L10
 170 005e B9E0     		b	.L21
 171              	.L14:
 172 0060 B3F5435F 		cmp	r3, #12480
 173 0064 00F0AE80 		beq	.L22
 174 0068 07D8     		bhi	.L23
 175 006a B3F5415F 		cmp	r3, #12352
 176 006e 79D0     		beq	.L24
 177 0070 B3F5425F 		cmp	r3, #12416
 178 0074 00F0A280 		beq	.L25
 179 0078 B3E0     		b	.L10
 180              	.L23:
 181 007a 43F60802 		movw	r2, #14344
 182 007e 9342     		cmp	r3, r2
 183 0080 68D0     		beq	.L26
 184 0082 B3F5625F 		cmp	r3, #14464
 185 0086 00F09180 		beq	.L27
 186 008a B3F5605F 		cmp	r3, #14336
 187 008e 40F0A880 		bne	.L10
 188 0092 5BE0     		b	.L28
 189              	.L12:
 190 0094 B3F57C5F 		cmp	r3, #16128
 191 0098 44D0     		beq	.L29
 192 009a 15D8     		bhi	.L30
 193 009c B3F5705F 		cmp	r3, #15360
 194 00a0 4CD0     		beq	.L31
 195 00a2 06D8     		bhi	.L32
 196 00a4 B3F5685F 		cmp	r3, #14848
 197 00a8 4CD0     		beq	.L33
 198 00aa B3F56A5F 		cmp	r3, #14976
 199 00ae 79D0     		beq	.L34
 200 00b0 97E0     		b	.L10
ARM GAS  C:\Users\simon\AppData\Local\Temp\ccnYhktc.s 			page 6


 201              	.L32:
 202 00b2 B3F5785F 		cmp	r3, #15872
 203 00b6 3DD0     		beq	.L35
 204 00b8 B3F57A5F 		cmp	r3, #16000
 205 00bc 6AD0     		beq	.L36
 206 00be B3F5725F 		cmp	r3, #15488
 207 00c2 40F08E80 		bne	.L10
 208 00c6 69E0     		b	.L37
 209              	.L30:
 210 00c8 43F61472 		movw	r2, #16148
 211 00cc 9342     		cmp	r3, r2
 212 00ce 1DD0     		beq	.L38
 213 00d0 0CD8     		bhi	.L39
 214 00d2 43F61172 		movw	r2, #16145
 215 00d6 9342     		cmp	r3, r2
 216 00d8 14D0     		beq	.L40
 217 00da 43F61272 		movw	r2, #16146
 218 00de 9342     		cmp	r3, r2
 219 00e0 1CD0     		beq	.L41
 220 00e2 43F61072 		movw	r2, #16144
 221 00e6 9342     		cmp	r3, r2
 222 00e8 7BD1     		bne	.L10
 223 00ea 13E0     		b	.L42
 224              	.L39:
 225 00ec B3F57E5F 		cmp	r3, #16256
 226 00f0 48D0     		beq	.L43
 227 00f2 43F6A072 		movw	r2, #16288
 228 00f6 9342     		cmp	r3, r2
 229 00f8 48D0     		beq	.L44
 230 00fa 43F62072 		movw	r2, #16160
 231 00fe 9342     		cmp	r3, r2
 232 0100 6FD1     		bne	.L10
 233 0102 13E0     		b	.L45
 234              	.L40:
  86:main.c        ****         case 0b11111100010001: note = Bb1; break;
 235              		.loc 1 86 0
 236 0104 0022     		movs	r2, #0
 237 0106 3E4B     		ldr	r3, .L47+4
 238 0108 1A75     		strb	r2, [r3, #20]
 239 010a 6AE0     		b	.L10
 240              	.L38:
  87:main.c        ****         case 0b11111100010100: note = B1; break;
 241              		.loc 1 87 0
 242 010c 0122     		movs	r2, #1
 243 010e 3C4B     		ldr	r3, .L47+4
 244 0110 1A75     		strb	r2, [r3, #20]
 245 0112 66E0     		b	.L10
 246              	.L42:
  88:main.c        ****         case 0b11111100010000: note = C2; break;
 247              		.loc 1 88 0
 248 0114 0222     		movs	r2, #2
 249 0116 3A4B     		ldr	r3, .L47+4
 250 0118 1A75     		strb	r2, [r3, #20]
 251 011a 62E0     		b	.L10
 252              	.L41:
  89:main.c        ****         case 0b11111100010010: note = Csharp2; break;
 253              		.loc 1 89 0
ARM GAS  C:\Users\simon\AppData\Local\Temp\ccnYhktc.s 			page 7


 254 011c 0322     		movs	r2, #3
 255 011e 384B     		ldr	r3, .L47+4
 256 0120 1A75     		strb	r2, [r3, #20]
 257 0122 5EE0     		b	.L10
 258              	.L29:
  90:main.c        ****         case 0b11111100000000: note = D2; break;
 259              		.loc 1 90 0
 260 0124 0422     		movs	r2, #4
 261 0126 364B     		ldr	r3, .L47+4
 262 0128 1A75     		strb	r2, [r3, #20]
 263 012a 5AE0     		b	.L10
 264              	.L45:
  91:main.c        ****         case 0b11111100100000: note = Dsharp2; break;
 265              		.loc 1 91 0
 266 012c 0522     		movs	r2, #5
 267 012e 344B     		ldr	r3, .L47+4
 268 0130 1A75     		strb	r2, [r3, #20]
 269 0132 56E0     		b	.L10
 270              	.L35:
  92:main.c        ****         case 0b11111000000000: note = E2; break;
 271              		.loc 1 92 0
 272 0134 0622     		movs	r2, #6
 273 0136 324B     		ldr	r3, .L47+4
 274 0138 1A75     		strb	r2, [r3, #20]
 275 013a 52E0     		b	.L10
 276              	.L31:
  93:main.c        ****         case 0b11110000000000: note = F2; break;
 277              		.loc 1 93 0
 278 013c 0722     		movs	r2, #7
 279 013e 304B     		ldr	r3, .L47+4
 280 0140 1A75     		strb	r2, [r3, #20]
 281 0142 4EE0     		b	.L10
 282              	.L33:
  94:main.c        ****         case 0b11101000000000: note = Fsharp2; break;
 283              		.loc 1 94 0
 284 0144 0822     		movs	r2, #8
 285 0146 2E4B     		ldr	r3, .L47+4
 286 0148 1A75     		strb	r2, [r3, #20]
 287 014a 4AE0     		b	.L10
 288              	.L28:
  95:main.c        ****         case 0b11100000000000: note = G2; break;
 289              		.loc 1 95 0
 290 014c 0922     		movs	r2, #9
 291 014e 2C4B     		ldr	r3, .L47+4
 292 0150 1A75     		strb	r2, [r3, #20]
 293 0152 46E0     		b	.L10
 294              	.L26:
  96:main.c        ****         case 0b11100000001000: note = Gsharp2; break;
 295              		.loc 1 96 0
 296 0154 0A22     		movs	r2, #10
 297 0156 2A4B     		ldr	r3, .L47+4
 298 0158 1A75     		strb	r2, [r3, #20]
 299 015a 42E0     		b	.L10
 300              	.L13:
  97:main.c        ****         case 0b11000000000000: note = A2;  break;
 301              		.loc 1 97 0
 302 015c 0B22     		movs	r2, #11
ARM GAS  C:\Users\simon\AppData\Local\Temp\ccnYhktc.s 			page 8


 303 015e 284B     		ldr	r3, .L47+4
 304 0160 1A75     		strb	r2, [r3, #20]
 305 0162 3EE0     		b	.L10
 306              	.L24:
  98:main.c        ****         case 0b11000001000000: note = Bb2; break;
 307              		.loc 1 98 0
 308 0164 0C22     		movs	r2, #12
 309 0166 264B     		ldr	r3, .L47+4
 310 0168 1A75     		strb	r2, [r3, #20]
 311 016a 3AE0     		b	.L10
 312              	.L19:
  99:main.c        ****         case 0b10000000000000: note = B2; break;
 313              		.loc 1 99 0
 314 016c 0D22     		movs	r2, #13
 315 016e 244B     		ldr	r3, .L47+4
 316 0170 1A75     		strb	r2, [r3, #20]
 317 0172 36E0     		b	.L10
 318              	.L15:
 100:main.c        ****         case 0b01000000000000: note = C3; break;
 319              		.loc 1 100 0
 320 0174 0E22     		movs	r2, #14
 321 0176 224B     		ldr	r3, .L47+4
 322 0178 1A75     		strb	r2, [r3, #20]
 323 017a 32E0     		b	.L10
 324              	.L17:
 101:main.c        ****         case 0b00000000000000: note = Csharp3; break;
 325              		.loc 1 101 0
 326 017c 0F22     		movs	r2, #15
 327 017e 204B     		ldr	r3, .L47+4
 328 0180 1A75     		strb	r2, [r3, #20]
 329 0182 2EE0     		b	.L10
 330              	.L43:
 102:main.c        ****         case 0b11111110000000: note = D3; break;
 331              		.loc 1 102 0
 332 0184 1022     		movs	r2, #16
 333 0186 1E4B     		ldr	r3, .L47+4
 334 0188 1A75     		strb	r2, [r3, #20]
 335 018a 2AE0     		b	.L10
 336              	.L44:
 103:main.c        ****         case 0b11111110100000: note = Dsharp3; break;
 337              		.loc 1 103 0
 338 018c 1122     		movs	r2, #17
 339 018e 1C4B     		ldr	r3, .L47+4
 340 0190 1A75     		strb	r2, [r3, #20]
 341 0192 26E0     		b	.L10
 342              	.L36:
 104:main.c        ****         case 0b11111010000000: note = E3; break;
 343              		.loc 1 104 0
 344 0194 1222     		movs	r2, #18
 345 0196 1A4B     		ldr	r3, .L47+4
 346 0198 1A75     		strb	r2, [r3, #20]
 347 019a 22E0     		b	.L10
 348              	.L37:
 105:main.c        ****         case 0b11110010000000: note = F3; break;
 349              		.loc 1 105 0
 350 019c 1322     		movs	r2, #19
 351 019e 184B     		ldr	r3, .L47+4
ARM GAS  C:\Users\simon\AppData\Local\Temp\ccnYhktc.s 			page 9


 352 01a0 1A75     		strb	r2, [r3, #20]
 353 01a2 1EE0     		b	.L10
 354              	.L34:
 106:main.c        ****         case 0b11101010000000: note = Fsharp3; break;
 355              		.loc 1 106 0
 356 01a4 1422     		movs	r2, #20
 357 01a6 164B     		ldr	r3, .L47+4
 358 01a8 1A75     		strb	r2, [r3, #20]
 359 01aa 1AE0     		b	.L10
 360              	.L27:
 107:main.c        ****         case 0b11100010000000: note = G3; break;
 361              		.loc 1 107 0
 362 01ac 1522     		movs	r2, #21
 363 01ae 144B     		ldr	r3, .L47+4
 364 01b0 1A75     		strb	r2, [r3, #20]
 365 01b2 16E0     		b	.L10
 366              	.L11:
 108:main.c        ****         case 0b11100010001000: note = Gsharp3; break;
 367              		.loc 1 108 0
 368 01b4 1622     		movs	r2, #22
 369 01b6 124B     		ldr	r3, .L47+4
 370 01b8 1A75     		strb	r2, [r3, #20]
 371 01ba 12E0     		b	.L10
 372              	.L25:
 109:main.c        ****         case 0b11000010000000: note = A3; break;
 373              		.loc 1 109 0
 374 01bc 1722     		movs	r2, #23
 375 01be 104B     		ldr	r3, .L47+4
 376 01c0 1A75     		strb	r2, [r3, #20]
 377 01c2 0EE0     		b	.L10
 378              	.L22:
 110:main.c        ****         case 0b11000011000000: note = Bb3; break;
 379              		.loc 1 110 0
 380 01c4 1822     		movs	r2, #24
 381 01c6 0E4B     		ldr	r3, .L47+4
 382 01c8 1A75     		strb	r2, [r3, #20]
 383 01ca 0AE0     		b	.L10
 384              	.L20:
 111:main.c        ****         case 0b10000010000000: note = B3; break;
 385              		.loc 1 111 0
 386 01cc 1922     		movs	r2, #25
 387 01ce 0C4B     		ldr	r3, .L47+4
 388 01d0 1A75     		strb	r2, [r3, #20]
 389 01d2 06E0     		b	.L10
 390              	.L21:
 112:main.c        ****         case 0b01000010000000: note = C4; break;
 391              		.loc 1 112 0
 392 01d4 1A22     		movs	r2, #26
 393 01d6 0A4B     		ldr	r3, .L47+4
 394 01d8 1A75     		strb	r2, [r3, #20]
 395 01da 02E0     		b	.L10
 396              	.L18:
 113:main.c        ****         case 0b00000010000000: note = Csharp4; break;
 397              		.loc 1 113 0
 398 01dc 1B22     		movs	r2, #27
 399 01de 084B     		ldr	r3, .L47+4
 400 01e0 1A75     		strb	r2, [r3, #20]
ARM GAS  C:\Users\simon\AppData\Local\Temp\ccnYhktc.s 			page 10


 401              	.L10:
 114:main.c        ****         default: break;
 115:main.c        ****     }  
 116:main.c        ****     
 117:main.c        ****     waveform_select = Beginning; // restarts the waveform
 402              		.loc 1 117 0
 403 01e2 074B     		ldr	r3, .L47+4
 404 01e4 0022     		movs	r2, #0
 405 01e6 1A70     		strb	r2, [r3]
 118:main.c        ****     waveformIndex = 0;
 406              		.loc 1 118 0
 407 01e8 0449     		ldr	r1, .L47
 408 01ea 0A60     		str	r2, [r1]
 119:main.c        ****     Waveform_Send_WritePeriod(periods[note]); // changes the frequency
 409              		.loc 1 119 0
 410 01ec 1A7D     		ldrb	r2, [r3, #20]	@ zero_extendqisi2
 411 01ee 03EB4203 		add	r3, r3, r2, lsl #1
 412 01f2 188B     		ldrh	r0, [r3, #24]
 413 01f4 FFF7FEFF 		bl	Waveform_Send_WritePeriod
 414              	.LVL6:
 415 01f8 10BD     		pop	{r4, pc}
 416              	.L48:
 417 01fa 00BF     		.align	2
 418              	.L47:
 419 01fc 00000000 		.word	.LANCHOR1
 420 0200 00000000 		.word	.LANCHOR0
 421              		.cfi_endproc
 422              	.LFE64:
 423              		.size	Button_ISR, .-Button_ISR
 424              		.section	.text.Inputs_ISR,"ax",%progbits
 425              		.align	2
 426              		.global	Inputs_ISR
 427              		.thumb
 428              		.thumb_func
 429              		.type	Inputs_ISR, %function
 430              	Inputs_ISR:
 431              	.LFB65:
 120:main.c        ****     
 121:main.c        **** }
 122:main.c        **** 
 123:main.c        **** CY_ISR(Inputs_ISR) {
 432              		.loc 1 123 0
 433              		.cfi_startproc
 434              		@ args = 0, pretend = 0, frame = 0
 435              		@ frame_needed = 0, uses_anonymous_args = 0
 436 0000 08B5     		push	{r3, lr}
 437              		.cfi_def_cfa_offset 8
 438              		.cfi_offset 3, -8
 439              		.cfi_offset 14, -4
 124:main.c        ****     
 125:main.c        ****     // polls the volume pedal every 1/100 second
 126:main.c        ****     volumeControl = ADC_VolumePedal_Read16();
 440              		.loc 1 126 0
 441 0002 FFF7FEFF 		bl	ADC_VolumePedal_Read16
 442              	.LVL7:
 443 0006 274B     		ldr	r3, .L60
 444 0008 5881     		strh	r0, [r3, #10]	@ movhi
ARM GAS  C:\Users\simon\AppData\Local\Temp\ccnYhktc.s 			page 11


 127:main.c        ****     
 128:main.c        ****     // changes the volume based on the read of the ADC  
 129:main.c        ****     if (volumeControl < 20) {volume = 0;}
 445              		.loc 1 129 0
 446 000a 5B89     		ldrh	r3, [r3, #10]
 447 000c 1BB2     		sxth	r3, r3
 448 000e 132B     		cmp	r3, #19
 449 0010 03DC     		bgt	.L50
 450              		.loc 1 129 0 is_stmt 0 discriminator 1
 451 0012 0022     		movs	r2, #0
 452 0014 234B     		ldr	r3, .L60
 453 0016 1A71     		strb	r2, [r3, #4]
 454 0018 41E0     		b	.L51
 455              	.L50:
 130:main.c        ****     else if (volumeControl < 40) {volume = 5;}
 456              		.loc 1 130 0 is_stmt 1
 457 001a 224B     		ldr	r3, .L60
 458 001c 5B89     		ldrh	r3, [r3, #10]
 459 001e 1BB2     		sxth	r3, r3
 460 0020 272B     		cmp	r3, #39
 461 0022 03DC     		bgt	.L52
 462              		.loc 1 130 0 is_stmt 0 discriminator 1
 463 0024 0522     		movs	r2, #5
 464 0026 1F4B     		ldr	r3, .L60
 465 0028 1A71     		strb	r2, [r3, #4]
 466 002a 38E0     		b	.L51
 467              	.L52:
 131:main.c        ****     else if (volumeControl < 60) {volume = 10;}
 468              		.loc 1 131 0 is_stmt 1
 469 002c 1D4B     		ldr	r3, .L60
 470 002e 5B89     		ldrh	r3, [r3, #10]
 471 0030 1BB2     		sxth	r3, r3
 472 0032 3B2B     		cmp	r3, #59
 473 0034 03DC     		bgt	.L53
 474              		.loc 1 131 0 is_stmt 0 discriminator 1
 475 0036 0A22     		movs	r2, #10
 476 0038 1A4B     		ldr	r3, .L60
 477 003a 1A71     		strb	r2, [r3, #4]
 478 003c 2FE0     		b	.L51
 479              	.L53:
 132:main.c        ****     else if (volumeControl < 100) {volume = 15;}
 480              		.loc 1 132 0 is_stmt 1
 481 003e 194B     		ldr	r3, .L60
 482 0040 5B89     		ldrh	r3, [r3, #10]
 483 0042 1BB2     		sxth	r3, r3
 484 0044 632B     		cmp	r3, #99
 485 0046 03DC     		bgt	.L54
 486              		.loc 1 132 0 is_stmt 0 discriminator 1
 487 0048 0F22     		movs	r2, #15
 488 004a 164B     		ldr	r3, .L60
 489 004c 1A71     		strb	r2, [r3, #4]
 490 004e 26E0     		b	.L51
 491              	.L54:
 133:main.c        ****     else if (volumeControl < 140) {volume = 20;}
 492              		.loc 1 133 0 is_stmt 1
 493 0050 144B     		ldr	r3, .L60
 494 0052 5B89     		ldrh	r3, [r3, #10]
ARM GAS  C:\Users\simon\AppData\Local\Temp\ccnYhktc.s 			page 12


 495 0054 1BB2     		sxth	r3, r3
 496 0056 8B2B     		cmp	r3, #139
 497 0058 03DC     		bgt	.L55
 498              		.loc 1 133 0 is_stmt 0 discriminator 1
 499 005a 1422     		movs	r2, #20
 500 005c 114B     		ldr	r3, .L60
 501 005e 1A71     		strb	r2, [r3, #4]
 502 0060 1DE0     		b	.L51
 503              	.L55:
 134:main.c        ****     else if (volumeControl < 180) {volume = 25;}
 504              		.loc 1 134 0 is_stmt 1
 505 0062 104B     		ldr	r3, .L60
 506 0064 5B89     		ldrh	r3, [r3, #10]
 507 0066 1BB2     		sxth	r3, r3
 508 0068 B32B     		cmp	r3, #179
 509 006a 03DC     		bgt	.L56
 510              		.loc 1 134 0 is_stmt 0 discriminator 1
 511 006c 1922     		movs	r2, #25
 512 006e 0D4B     		ldr	r3, .L60
 513 0070 1A71     		strb	r2, [r3, #4]
 514 0072 14E0     		b	.L51
 515              	.L56:
 135:main.c        ****     else if (volumeControl < 220) {volume = 30;}
 516              		.loc 1 135 0 is_stmt 1
 517 0074 0B4B     		ldr	r3, .L60
 518 0076 5B89     		ldrh	r3, [r3, #10]
 519 0078 1BB2     		sxth	r3, r3
 520 007a DB2B     		cmp	r3, #219
 521 007c 03DC     		bgt	.L57
 522              		.loc 1 135 0 is_stmt 0 discriminator 1
 523 007e 1E22     		movs	r2, #30
 524 0080 084B     		ldr	r3, .L60
 525 0082 1A71     		strb	r2, [r3, #4]
 526 0084 0BE0     		b	.L51
 527              	.L57:
 136:main.c        ****     else if (volumeControl < 240) {volume = 35;}
 528              		.loc 1 136 0 is_stmt 1
 529 0086 074B     		ldr	r3, .L60
 530 0088 5B89     		ldrh	r3, [r3, #10]
 531 008a 1BB2     		sxth	r3, r3
 532 008c EF2B     		cmp	r3, #239
 533 008e 03DC     		bgt	.L58
 534              		.loc 1 136 0 is_stmt 0 discriminator 1
 535 0090 2322     		movs	r2, #35
 536 0092 044B     		ldr	r3, .L60
 537 0094 1A71     		strb	r2, [r3, #4]
 538 0096 02E0     		b	.L51
 539              	.L58:
 137:main.c        ****     else {volume = 40;}
 540              		.loc 1 137 0 is_stmt 1
 541 0098 2822     		movs	r2, #40
 542 009a 024B     		ldr	r3, .L60
 543 009c 1A71     		strb	r2, [r3, #4]
 544              	.L51:
 138:main.c        ****     
 139:main.c        ****     // Resets the TC flag
 140:main.c        ****     ReadInputs_ReadStatusRegister();
ARM GAS  C:\Users\simon\AppData\Local\Temp\ccnYhktc.s 			page 13


 545              		.loc 1 140 0
 546 009e FFF7FEFF 		bl	ReadInputs_ReadStatusRegister
 547              	.LVL8:
 548 00a2 08BD     		pop	{r3, pc}
 549              	.L61:
 550              		.align	2
 551              	.L60:
 552 00a4 00000000 		.word	.LANCHOR1
 553              		.cfi_endproc
 554              	.LFE65:
 555              		.size	Inputs_ISR, .-Inputs_ISR
 556              		.section	.text.Notes_ISR,"ax",%progbits
 557              		.align	2
 558              		.global	Notes_ISR
 559              		.thumb
 560              		.thumb_func
 561              		.type	Notes_ISR, %function
 562              	Notes_ISR:
 563              	.LFB66:
 141:main.c        ****     
 142:main.c        **** 
 143:main.c        **** }
 144:main.c        **** 
 145:main.c        **** CY_ISR(Notes_ISR) {
 564              		.loc 1 145 0
 565              		.cfi_startproc
 566              		@ args = 0, pretend = 0, frame = 0
 567              		@ frame_needed = 0, uses_anonymous_args = 0
 568 0000 38B5     		push	{r3, r4, r5, lr}
 569              		.cfi_def_cfa_offset 16
 570              		.cfi_offset 3, -16
 571              		.cfi_offset 4, -12
 572              		.cfi_offset 5, -8
 573              		.cfi_offset 14, -4
 146:main.c        ****     
 147:main.c        ****     isChange = 1;
 574              		.loc 1 147 0
 575 0002 754C     		ldr	r4, .L94
 576 0004 0123     		movs	r3, #1
 577 0006 2373     		strb	r3, [r4, #12]
 148:main.c        ****     desired_note_index = (desired_note_index + 1)%song_length;
 578              		.loc 1 148 0
 579 0008 637B     		ldrb	r3, [r4, #13]	@ zero_extendqisi2
 580 000a 0133     		adds	r3, r3, #1
 581 000c 734D     		ldr	r5, .L94+4
 582 000e 95F85010 		ldrb	r1, [r5, #80]	@ zero_extendqisi2
 583 0012 93FBF1F2 		sdiv	r2, r3, r1
 584 0016 01FB1233 		mls	r3, r1, r2, r3
 585 001a DBB2     		uxtb	r3, r3
 586 001c 6373     		strb	r3, [r4, #13]
 149:main.c        ****     
 150:main.c        ****     // Resets the TC flag
 151:main.c        ****     UpdateNote_ReadStatusRegister();
 587              		.loc 1 151 0
 588 001e FFF7FEFF 		bl	UpdateNote_ReadStatusRegister
 589              	.LVL9:
 152:main.c        ****     
ARM GAS  C:\Users\simon\AppData\Local\Temp\ccnYhktc.s 			page 14


 153:main.c        ****     switch (desired_notes[desired_note_index]) {
 590              		.loc 1 153 0
 591 0022 637B     		ldrb	r3, [r4, #13]	@ zero_extendqisi2
 592 0024 2B44     		add	r3, r3, r5
 593 0026 93F85430 		ldrb	r3, [r3, #84]	@ zero_extendqisi2
 594 002a 1B2B     		cmp	r3, #27
 595 002c 00F2D380 		bhi	.L62
 596 0030 DFE803F0 		tbb	[pc, r3]
 597              	.L65:
 598 0034 0E       		.byte	(.L64-.L65)/2
 599 0035 15       		.byte	(.L66-.L65)/2
 600 0036 1C       		.byte	(.L67-.L65)/2
 601 0037 23       		.byte	(.L68-.L65)/2
 602 0038 2A       		.byte	(.L69-.L65)/2
 603 0039 31       		.byte	(.L70-.L65)/2
 604 003a 38       		.byte	(.L71-.L65)/2
 605 003b 3F       		.byte	(.L72-.L65)/2
 606 003c 46       		.byte	(.L73-.L65)/2
 607 003d 4D       		.byte	(.L74-.L65)/2
 608 003e 54       		.byte	(.L75-.L65)/2
 609 003f 5B       		.byte	(.L76-.L65)/2
 610 0040 62       		.byte	(.L77-.L65)/2
 611 0041 69       		.byte	(.L78-.L65)/2
 612 0042 70       		.byte	(.L79-.L65)/2
 613 0043 77       		.byte	(.L80-.L65)/2
 614 0044 7E       		.byte	(.L81-.L65)/2
 615 0045 85       		.byte	(.L82-.L65)/2
 616 0046 8C       		.byte	(.L83-.L65)/2
 617 0047 93       		.byte	(.L84-.L65)/2
 618 0048 9A       		.byte	(.L85-.L65)/2
 619 0049 A1       		.byte	(.L86-.L65)/2
 620 004a A8       		.byte	(.L87-.L65)/2
 621 004b AF       		.byte	(.L88-.L65)/2
 622 004c B6       		.byte	(.L89-.L65)/2
 623 004d BD       		.byte	(.L90-.L65)/2
 624 004e C4       		.byte	(.L91-.L65)/2
 625 004f CB       		.byte	(.L92-.L65)/2
 626              		.p2align 1
 627              	.L64:
 154:main.c        ****     case Bb1:
 155:main.c        ****         Control_Reg_1_Write(0b11111100);
 628              		.loc 1 155 0
 629 0050 FC20     		movs	r0, #252
 630 0052 FFF7FEFF 		bl	Control_Reg_1_Write
 631              	.LVL10:
 156:main.c        ****         Control_Reg_2_Write(0b010001);
 632              		.loc 1 156 0
 633 0056 1120     		movs	r0, #17
 634 0058 FFF7FEFF 		bl	Control_Reg_2_Write
 635              	.LVL11:
 157:main.c        ****         break;
 636              		.loc 1 157 0
 637 005c 38BD     		pop	{r3, r4, r5, pc}
 638              	.L66:
 158:main.c        ****     case B1:
 159:main.c        ****         Control_Reg_1_Write(0b11111100);
 639              		.loc 1 159 0
ARM GAS  C:\Users\simon\AppData\Local\Temp\ccnYhktc.s 			page 15


 640 005e FC20     		movs	r0, #252
 641 0060 FFF7FEFF 		bl	Control_Reg_1_Write
 642              	.LVL12:
 160:main.c        ****         Control_Reg_2_Write(0b010100);
 643              		.loc 1 160 0
 644 0064 1420     		movs	r0, #20
 645 0066 FFF7FEFF 		bl	Control_Reg_2_Write
 646              	.LVL13:
 161:main.c        ****         break;
 647              		.loc 1 161 0
 648 006a 38BD     		pop	{r3, r4, r5, pc}
 649              	.L67:
 162:main.c        ****     case C2:
 163:main.c        ****         Control_Reg_1_Write(0b11111100);
 650              		.loc 1 163 0
 651 006c FC20     		movs	r0, #252
 652 006e FFF7FEFF 		bl	Control_Reg_1_Write
 653              	.LVL14:
 164:main.c        ****         Control_Reg_2_Write(0b010000);
 654              		.loc 1 164 0
 655 0072 1020     		movs	r0, #16
 656 0074 FFF7FEFF 		bl	Control_Reg_2_Write
 657              	.LVL15:
 165:main.c        ****         break;
 658              		.loc 1 165 0
 659 0078 38BD     		pop	{r3, r4, r5, pc}
 660              	.L68:
 166:main.c        ****     case Csharp2:
 167:main.c        ****         Control_Reg_1_Write(0b11111100);
 661              		.loc 1 167 0
 662 007a FC20     		movs	r0, #252
 663 007c FFF7FEFF 		bl	Control_Reg_1_Write
 664              	.LVL16:
 168:main.c        ****         Control_Reg_2_Write(0b010010);
 665              		.loc 1 168 0
 666 0080 1220     		movs	r0, #18
 667 0082 FFF7FEFF 		bl	Control_Reg_2_Write
 668              	.LVL17:
 169:main.c        ****         break;
 669              		.loc 1 169 0
 670 0086 38BD     		pop	{r3, r4, r5, pc}
 671              	.L69:
 170:main.c        ****     case D2:
 171:main.c        ****         Control_Reg_1_Write(0b11111100);
 672              		.loc 1 171 0
 673 0088 FC20     		movs	r0, #252
 674 008a FFF7FEFF 		bl	Control_Reg_1_Write
 675              	.LVL18:
 172:main.c        ****         Control_Reg_2_Write(0b000000);
 676              		.loc 1 172 0
 677 008e 0020     		movs	r0, #0
 678 0090 FFF7FEFF 		bl	Control_Reg_2_Write
 679              	.LVL19:
 173:main.c        ****         break;
 680              		.loc 1 173 0
 681 0094 38BD     		pop	{r3, r4, r5, pc}
 682              	.L70:
ARM GAS  C:\Users\simon\AppData\Local\Temp\ccnYhktc.s 			page 16


 174:main.c        ****     case Dsharp2:
 175:main.c        ****         Control_Reg_1_Write(0b11111100);
 683              		.loc 1 175 0
 684 0096 FC20     		movs	r0, #252
 685 0098 FFF7FEFF 		bl	Control_Reg_1_Write
 686              	.LVL20:
 176:main.c        ****         Control_Reg_2_Write(0b100000);
 687              		.loc 1 176 0
 688 009c 2020     		movs	r0, #32
 689 009e FFF7FEFF 		bl	Control_Reg_2_Write
 690              	.LVL21:
 177:main.c        ****         break;
 691              		.loc 1 177 0
 692 00a2 38BD     		pop	{r3, r4, r5, pc}
 693              	.L71:
 178:main.c        ****     case E2:
 179:main.c        ****         Control_Reg_1_Write(0b11111000);
 694              		.loc 1 179 0
 695 00a4 F820     		movs	r0, #248
 696 00a6 FFF7FEFF 		bl	Control_Reg_1_Write
 697              	.LVL22:
 180:main.c        ****         Control_Reg_2_Write(0b000000);
 698              		.loc 1 180 0
 699 00aa 0020     		movs	r0, #0
 700 00ac FFF7FEFF 		bl	Control_Reg_2_Write
 701              	.LVL23:
 181:main.c        ****         break;
 702              		.loc 1 181 0
 703 00b0 38BD     		pop	{r3, r4, r5, pc}
 704              	.L72:
 182:main.c        ****     case F2:
 183:main.c        ****         Control_Reg_1_Write(0b11110000);
 705              		.loc 1 183 0
 706 00b2 F020     		movs	r0, #240
 707 00b4 FFF7FEFF 		bl	Control_Reg_1_Write
 708              	.LVL24:
 184:main.c        ****         Control_Reg_2_Write(0b000000);
 709              		.loc 1 184 0
 710 00b8 0020     		movs	r0, #0
 711 00ba FFF7FEFF 		bl	Control_Reg_2_Write
 712              	.LVL25:
 185:main.c        ****         break;
 713              		.loc 1 185 0
 714 00be 38BD     		pop	{r3, r4, r5, pc}
 715              	.L73:
 186:main.c        ****     case Fsharp2:
 187:main.c        ****         Control_Reg_1_Write(0b11101000);
 716              		.loc 1 187 0
 717 00c0 E820     		movs	r0, #232
 718 00c2 FFF7FEFF 		bl	Control_Reg_1_Write
 719              	.LVL26:
 188:main.c        ****         Control_Reg_2_Write(0b000000);
 720              		.loc 1 188 0
 721 00c6 0020     		movs	r0, #0
 722 00c8 FFF7FEFF 		bl	Control_Reg_2_Write
 723              	.LVL27:
 189:main.c        ****         break;
ARM GAS  C:\Users\simon\AppData\Local\Temp\ccnYhktc.s 			page 17


 724              		.loc 1 189 0
 725 00cc 38BD     		pop	{r3, r4, r5, pc}
 726              	.L74:
 190:main.c        ****     case G2:
 191:main.c        ****         Control_Reg_1_Write(0b11100000);
 727              		.loc 1 191 0
 728 00ce E020     		movs	r0, #224
 729 00d0 FFF7FEFF 		bl	Control_Reg_1_Write
 730              	.LVL28:
 192:main.c        ****         Control_Reg_2_Write(0b000000);
 731              		.loc 1 192 0
 732 00d4 0020     		movs	r0, #0
 733 00d6 FFF7FEFF 		bl	Control_Reg_2_Write
 734              	.LVL29:
 193:main.c        ****         break;
 735              		.loc 1 193 0
 736 00da 38BD     		pop	{r3, r4, r5, pc}
 737              	.L75:
 194:main.c        ****     case Gsharp2:
 195:main.c        ****         Control_Reg_1_Write(0b11100000);
 738              		.loc 1 195 0
 739 00dc E020     		movs	r0, #224
 740 00de FFF7FEFF 		bl	Control_Reg_1_Write
 741              	.LVL30:
 196:main.c        ****         Control_Reg_2_Write(0b001000);
 742              		.loc 1 196 0
 743 00e2 0820     		movs	r0, #8
 744 00e4 FFF7FEFF 		bl	Control_Reg_2_Write
 745              	.LVL31:
 197:main.c        ****         break;
 746              		.loc 1 197 0
 747 00e8 38BD     		pop	{r3, r4, r5, pc}
 748              	.L76:
 198:main.c        ****     case A2:
 199:main.c        ****         Control_Reg_1_Write(0b11000000);
 749              		.loc 1 199 0
 750 00ea C020     		movs	r0, #192
 751 00ec FFF7FEFF 		bl	Control_Reg_1_Write
 752              	.LVL32:
 200:main.c        ****         Control_Reg_2_Write(0b000000);
 753              		.loc 1 200 0
 754 00f0 0020     		movs	r0, #0
 755 00f2 FFF7FEFF 		bl	Control_Reg_2_Write
 756              	.LVL33:
 201:main.c        ****         break;
 757              		.loc 1 201 0
 758 00f6 38BD     		pop	{r3, r4, r5, pc}
 759              	.L77:
 202:main.c        ****     case Bb2:
 203:main.c        ****         Control_Reg_1_Write(0b11000001);
 760              		.loc 1 203 0
 761 00f8 C120     		movs	r0, #193
 762 00fa FFF7FEFF 		bl	Control_Reg_1_Write
 763              	.LVL34:
 204:main.c        ****         Control_Reg_2_Write(0b000000);
 764              		.loc 1 204 0
 765 00fe 0020     		movs	r0, #0
ARM GAS  C:\Users\simon\AppData\Local\Temp\ccnYhktc.s 			page 18


 766 0100 FFF7FEFF 		bl	Control_Reg_2_Write
 767              	.LVL35:
 205:main.c        ****         break;
 768              		.loc 1 205 0
 769 0104 38BD     		pop	{r3, r4, r5, pc}
 770              	.L78:
 206:main.c        ****     case B2:
 207:main.c        ****         Control_Reg_1_Write(0b10000000);
 771              		.loc 1 207 0
 772 0106 8020     		movs	r0, #128
 773 0108 FFF7FEFF 		bl	Control_Reg_1_Write
 774              	.LVL36:
 208:main.c        ****         Control_Reg_2_Write(0b000000);
 775              		.loc 1 208 0
 776 010c 0020     		movs	r0, #0
 777 010e FFF7FEFF 		bl	Control_Reg_2_Write
 778              	.LVL37:
 209:main.c        ****         break;
 779              		.loc 1 209 0
 780 0112 38BD     		pop	{r3, r4, r5, pc}
 781              	.L79:
 210:main.c        ****     case C3:
 211:main.c        ****         Control_Reg_1_Write(0b01000000);
 782              		.loc 1 211 0
 783 0114 4020     		movs	r0, #64
 784 0116 FFF7FEFF 		bl	Control_Reg_1_Write
 785              	.LVL38:
 212:main.c        ****         Control_Reg_2_Write(0b000000);
 786              		.loc 1 212 0
 787 011a 0020     		movs	r0, #0
 788 011c FFF7FEFF 		bl	Control_Reg_2_Write
 789              	.LVL39:
 213:main.c        ****         break;
 790              		.loc 1 213 0
 791 0120 38BD     		pop	{r3, r4, r5, pc}
 792              	.L80:
 214:main.c        ****     case Csharp3:
 215:main.c        ****         Control_Reg_1_Write(0b00000000);
 793              		.loc 1 215 0
 794 0122 0020     		movs	r0, #0
 795 0124 FFF7FEFF 		bl	Control_Reg_1_Write
 796              	.LVL40:
 216:main.c        ****         Control_Reg_2_Write(0b000000);
 797              		.loc 1 216 0
 798 0128 0020     		movs	r0, #0
 799 012a FFF7FEFF 		bl	Control_Reg_2_Write
 800              	.LVL41:
 217:main.c        ****         break;
 801              		.loc 1 217 0
 802 012e 38BD     		pop	{r3, r4, r5, pc}
 803              	.L81:
 218:main.c        ****     case D3:
 219:main.c        ****         Control_Reg_1_Write(0b11111110);
 804              		.loc 1 219 0
 805 0130 FE20     		movs	r0, #254
 806 0132 FFF7FEFF 		bl	Control_Reg_1_Write
 807              	.LVL42:
ARM GAS  C:\Users\simon\AppData\Local\Temp\ccnYhktc.s 			page 19


 220:main.c        ****         Control_Reg_2_Write(0b000000);
 808              		.loc 1 220 0
 809 0136 0020     		movs	r0, #0
 810 0138 FFF7FEFF 		bl	Control_Reg_2_Write
 811              	.LVL43:
 221:main.c        ****         break;
 812              		.loc 1 221 0
 813 013c 38BD     		pop	{r3, r4, r5, pc}
 814              	.L82:
 222:main.c        ****     case Dsharp3:
 223:main.c        ****         Control_Reg_1_Write(0b11111110);
 815              		.loc 1 223 0
 816 013e FE20     		movs	r0, #254
 817 0140 FFF7FEFF 		bl	Control_Reg_1_Write
 818              	.LVL44:
 224:main.c        ****         Control_Reg_2_Write(0b100000);
 819              		.loc 1 224 0
 820 0144 2020     		movs	r0, #32
 821 0146 FFF7FEFF 		bl	Control_Reg_2_Write
 822              	.LVL45:
 225:main.c        ****         break;
 823              		.loc 1 225 0
 824 014a 38BD     		pop	{r3, r4, r5, pc}
 825              	.L83:
 226:main.c        ****     case E3:
 227:main.c        ****         Control_Reg_1_Write(0b11111010);
 826              		.loc 1 227 0
 827 014c FA20     		movs	r0, #250
 828 014e FFF7FEFF 		bl	Control_Reg_1_Write
 829              	.LVL46:
 228:main.c        ****         Control_Reg_2_Write(0b000000);
 830              		.loc 1 228 0
 831 0152 0020     		movs	r0, #0
 832 0154 FFF7FEFF 		bl	Control_Reg_2_Write
 833              	.LVL47:
 229:main.c        ****         break;
 834              		.loc 1 229 0
 835 0158 38BD     		pop	{r3, r4, r5, pc}
 836              	.L84:
 230:main.c        ****     case F3:
 231:main.c        ****         Control_Reg_1_Write(0b11110010);
 837              		.loc 1 231 0
 838 015a F220     		movs	r0, #242
 839 015c FFF7FEFF 		bl	Control_Reg_1_Write
 840              	.LVL48:
 232:main.c        ****         Control_Reg_2_Write(0b000000);
 841              		.loc 1 232 0
 842 0160 0020     		movs	r0, #0
 843 0162 FFF7FEFF 		bl	Control_Reg_2_Write
 844              	.LVL49:
 233:main.c        ****         break;
 845              		.loc 1 233 0
 846 0166 38BD     		pop	{r3, r4, r5, pc}
 847              	.L85:
 234:main.c        ****     case Fsharp3:
 235:main.c        ****         Control_Reg_1_Write(0b11101010);
 848              		.loc 1 235 0
ARM GAS  C:\Users\simon\AppData\Local\Temp\ccnYhktc.s 			page 20


 849 0168 EA20     		movs	r0, #234
 850 016a FFF7FEFF 		bl	Control_Reg_1_Write
 851              	.LVL50:
 236:main.c        ****         Control_Reg_2_Write(0b000000);
 852              		.loc 1 236 0
 853 016e 0020     		movs	r0, #0
 854 0170 FFF7FEFF 		bl	Control_Reg_2_Write
 855              	.LVL51:
 237:main.c        ****         break;
 856              		.loc 1 237 0
 857 0174 38BD     		pop	{r3, r4, r5, pc}
 858              	.L86:
 238:main.c        ****     case G3:
 239:main.c        ****         Control_Reg_1_Write(0b11100010);
 859              		.loc 1 239 0
 860 0176 E220     		movs	r0, #226
 861 0178 FFF7FEFF 		bl	Control_Reg_1_Write
 862              	.LVL52:
 240:main.c        ****         Control_Reg_2_Write(0b000000);
 863              		.loc 1 240 0
 864 017c 0020     		movs	r0, #0
 865 017e FFF7FEFF 		bl	Control_Reg_2_Write
 866              	.LVL53:
 241:main.c        ****         break;
 867              		.loc 1 241 0
 868 0182 38BD     		pop	{r3, r4, r5, pc}
 869              	.L87:
 242:main.c        ****     case Gsharp3:
 243:main.c        ****         Control_Reg_1_Write(0b11100010);
 870              		.loc 1 243 0
 871 0184 E220     		movs	r0, #226
 872 0186 FFF7FEFF 		bl	Control_Reg_1_Write
 873              	.LVL54:
 244:main.c        ****         Control_Reg_2_Write(0b001000);
 874              		.loc 1 244 0
 875 018a 0820     		movs	r0, #8
 876 018c FFF7FEFF 		bl	Control_Reg_2_Write
 877              	.LVL55:
 245:main.c        ****         break;
 878              		.loc 1 245 0
 879 0190 38BD     		pop	{r3, r4, r5, pc}
 880              	.L88:
 246:main.c        ****     case A3:
 247:main.c        ****         Control_Reg_1_Write(0b11000010);
 881              		.loc 1 247 0
 882 0192 C220     		movs	r0, #194
 883 0194 FFF7FEFF 		bl	Control_Reg_1_Write
 884              	.LVL56:
 248:main.c        ****         Control_Reg_2_Write(0b000000);
 885              		.loc 1 248 0
 886 0198 0020     		movs	r0, #0
 887 019a FFF7FEFF 		bl	Control_Reg_2_Write
 888              	.LVL57:
 249:main.c        ****         break;
 889              		.loc 1 249 0
 890 019e 38BD     		pop	{r3, r4, r5, pc}
 891              	.L89:
ARM GAS  C:\Users\simon\AppData\Local\Temp\ccnYhktc.s 			page 21


 250:main.c        ****     case Bb3:
 251:main.c        ****         Control_Reg_1_Write(0b11000011);
 892              		.loc 1 251 0
 893 01a0 C320     		movs	r0, #195
 894 01a2 FFF7FEFF 		bl	Control_Reg_1_Write
 895              	.LVL58:
 252:main.c        ****         Control_Reg_2_Write(0b000000);
 896              		.loc 1 252 0
 897 01a6 0020     		movs	r0, #0
 898 01a8 FFF7FEFF 		bl	Control_Reg_2_Write
 899              	.LVL59:
 253:main.c        ****         break;
 900              		.loc 1 253 0
 901 01ac 38BD     		pop	{r3, r4, r5, pc}
 902              	.L90:
 254:main.c        ****     case B3:
 255:main.c        ****         Control_Reg_1_Write(0b10000010);
 903              		.loc 1 255 0
 904 01ae 8220     		movs	r0, #130
 905 01b0 FFF7FEFF 		bl	Control_Reg_1_Write
 906              	.LVL60:
 256:main.c        ****         Control_Reg_2_Write(0b000000);
 907              		.loc 1 256 0
 908 01b4 0020     		movs	r0, #0
 909 01b6 FFF7FEFF 		bl	Control_Reg_2_Write
 910              	.LVL61:
 257:main.c        ****         break;
 911              		.loc 1 257 0
 912 01ba 38BD     		pop	{r3, r4, r5, pc}
 913              	.L91:
 258:main.c        ****     case C4:
 259:main.c        ****         Control_Reg_1_Write(0b01000010);
 914              		.loc 1 259 0
 915 01bc 4220     		movs	r0, #66
 916 01be FFF7FEFF 		bl	Control_Reg_1_Write
 917              	.LVL62:
 260:main.c        ****         Control_Reg_2_Write(0b000000);
 918              		.loc 1 260 0
 919 01c2 0020     		movs	r0, #0
 920 01c4 FFF7FEFF 		bl	Control_Reg_2_Write
 921              	.LVL63:
 261:main.c        ****         break;
 922              		.loc 1 261 0
 923 01c8 38BD     		pop	{r3, r4, r5, pc}
 924              	.L92:
 262:main.c        ****     case Csharp4:
 263:main.c        ****         Control_Reg_1_Write(0b00000010);
 925              		.loc 1 263 0
 926 01ca 0220     		movs	r0, #2
 927 01cc FFF7FEFF 		bl	Control_Reg_1_Write
 928              	.LVL64:
 264:main.c        ****         Control_Reg_2_Write(0b000000);
 929              		.loc 1 264 0
 930 01d0 0020     		movs	r0, #0
 931 01d2 FFF7FEFF 		bl	Control_Reg_2_Write
 932              	.LVL65:
 933              	.L62:
ARM GAS  C:\Users\simon\AppData\Local\Temp\ccnYhktc.s 			page 22


 934 01d6 38BD     		pop	{r3, r4, r5, pc}
 935              	.L95:
 936              		.align	2
 937              	.L94:
 938 01d8 00000000 		.word	.LANCHOR1
 939 01dc 00000000 		.word	.LANCHOR0
 940              		.cfi_endproc
 941              	.LFE66:
 942              		.size	Notes_ISR, .-Notes_ISR
 943              		.section	.text.DisplayInit,"ax",%progbits
 944              		.align	2
 945              		.global	DisplayInit
 946              		.thumb
 947              		.thumb_func
 948              		.type	DisplayInit, %function
 949              	DisplayInit:
 950              	.LFB68:
 265:main.c        ****         break;
 266:main.c        ****     default:
 267:main.c        ****         break;
 268:main.c        **** }
 269:main.c        **** 
 270:main.c        ****  
 271:main.c        **** }
 272:main.c        **** 
 273:main.c        **** int main(void) {
 274:main.c        ****     
 275:main.c        ****     CyGlobalIntEnable; // Enable global interrupts
 276:main.c        ****     Waveform_ISR_StartEx(Waveform_ISR); // Initialize the Waveform ISR
 277:main.c        ****     Button_Switch_StartEx(Button_ISR); // Initialize the Button ISR
 278:main.c        ****     Inputs_StartEx(Inputs_ISR); // Initialize the Button ISR
 279:main.c        ****     NewNote_StartEx(Notes_ISR); // Initialize the Notes ISR
 280:main.c        ****     
 281:main.c        ****     // Initialize components
 282:main.c        ****     Waveform_Send_Start(); // Start the Waveform Timer
 283:main.c        ****     ReadInputs_Start(); // Start the inputs timer
 284:main.c        ****     UpdateNote_Start(); // Start the song timer
 285:main.c        ****     Wave_Out_Start(); // Start the DAC
 286:main.c        ****     DACBuffer_Start(); // Start the OpAmp
 287:main.c        ****     ADC_VolumePedal_Start(); // Start the Volume ADC
 288:main.c        ****     
 289:main.c        ****     // Initialize Display
 290:main.c        ****     SPIM_1_Start(); 
 291:main.c        ****     DisplayInit();
 292:main.c        ****     
 293:main.c        ****     for(;;) { displayNotes(); }  // Display 
 294:main.c        **** }
 295:main.c        **** 
 296:main.c        **** void DisplayInit(){
 951              		.loc 1 296 0
 952              		.cfi_startproc
 953              		@ args = 0, pretend = 0, frame = 0
 954              		@ frame_needed = 0, uses_anonymous_args = 0
 955 0000 10B5     		push	{r4, lr}
 956              		.cfi_def_cfa_offset 8
 957              		.cfi_offset 4, -8
 958              		.cfi_offset 14, -4
ARM GAS  C:\Users\simon\AppData\Local\Temp\ccnYhktc.s 			page 23


 297:main.c        ****     
 298:main.c        ****     GUI_Init(); // Initialize the display
 959              		.loc 1 298 0
 960 0002 FFF7FEFF 		bl	GUI_Init
 961              	.LVL66:
 299:main.c        ****     GUI_Clear(); // Clear the Display
 962              		.loc 1 299 0
 963 0006 FFF7FEFF 		bl	GUI_Clear
 964              	.LVL67:
 300:main.c        **** 
 301:main.c        ****    
 302:main.c        ****     GUI_SetFont(&GUI_Font8x16x2x2);
 965              		.loc 1 302 0
 966 000a 8148     		ldr	r0, .L98
 967 000c FFF7FEFF 		bl	GUI_SetFont
 968              	.LVL68:
 303:main.c        ****     GUI_DispStringAt("Ode to Joy", 40, 15); // Title of the Song
 969              		.loc 1 303 0
 970 0010 0F22     		movs	r2, #15
 971 0012 2821     		movs	r1, #40
 972 0014 7F48     		ldr	r0, .L98+4
 973 0016 FFF7FEFF 		bl	GUI_DispStringAt
 974              	.LVL69:
 304:main.c        ****     
 305:main.c        ****     // Notes of the Song
 306:main.c        ****     
 307:main.c        ****     GUI_DrawLine(20, 100, 20, 140); // Bar 1
 975              		.loc 1 307 0
 976 001a 8C23     		movs	r3, #140
 977 001c 1422     		movs	r2, #20
 978 001e 6421     		movs	r1, #100
 979 0020 1046     		mov	r0, r2
 980 0022 FFF7FEFF 		bl	GUI_DrawLine
 981              	.LVL70:
 308:main.c        ****     
 309:main.c        ****     GUI_FillCircle(30, 105, 3);
 982              		.loc 1 309 0
 983 0026 0322     		movs	r2, #3
 984 0028 6921     		movs	r1, #105
 985 002a 1E20     		movs	r0, #30
 986 002c FFF7FEFF 		bl	GUI_FillCircle
 987              	.LVL71:
 310:main.c        ****     GUI_DrawLine(27, 105, 27, 135); // E quarter
 988              		.loc 1 310 0
 989 0030 8723     		movs	r3, #135
 990 0032 1B22     		movs	r2, #27
 991 0034 6921     		movs	r1, #105
 992 0036 1046     		mov	r0, r2
 993 0038 FFF7FEFF 		bl	GUI_DrawLine
 994              	.LVL72:
 311:main.c        ****     
 312:main.c        ****     GUI_FillCircle(40, 105, 3);
 995              		.loc 1 312 0
 996 003c 0322     		movs	r2, #3
 997 003e 6921     		movs	r1, #105
 998 0040 2820     		movs	r0, #40
 999 0042 FFF7FEFF 		bl	GUI_FillCircle
ARM GAS  C:\Users\simon\AppData\Local\Temp\ccnYhktc.s 			page 24


 1000              	.LVL73:
 313:main.c        ****     GUI_DrawLine(37, 105, 37, 135); // E quarter
 1001              		.loc 1 313 0
 1002 0046 8723     		movs	r3, #135
 1003 0048 2522     		movs	r2, #37
 1004 004a 6921     		movs	r1, #105
 1005 004c 1046     		mov	r0, r2
 1006 004e FFF7FEFF 		bl	GUI_DrawLine
 1007              	.LVL74:
 314:main.c        ****     
 315:main.c        ****     GUI_FillCircle(50, 100, 3);
 1008              		.loc 1 315 0
 1009 0052 0322     		movs	r2, #3
 1010 0054 6421     		movs	r1, #100
 1011 0056 3220     		movs	r0, #50
 1012 0058 FFF7FEFF 		bl	GUI_FillCircle
 1013              	.LVL75:
 316:main.c        ****     GUI_DrawLine(47, 100, 47, 130); // F quarter
 1014              		.loc 1 316 0
 1015 005c 8223     		movs	r3, #130
 1016 005e 2F22     		movs	r2, #47
 1017 0060 6421     		movs	r1, #100
 1018 0062 1046     		mov	r0, r2
 1019 0064 FFF7FEFF 		bl	GUI_DrawLine
 1020              	.LVL76:
 317:main.c        ****     
 318:main.c        ****     GUI_FillCircle(60, 95, 3);
 1021              		.loc 1 318 0
 1022 0068 0322     		movs	r2, #3
 1023 006a 5F21     		movs	r1, #95
 1024 006c 3C20     		movs	r0, #60
 1025 006e FFF7FEFF 		bl	GUI_FillCircle
 1026              	.LVL77:
 319:main.c        ****     GUI_DrawLine(57, 95, 57, 125); // G quarter
 1027              		.loc 1 319 0
 1028 0072 7D23     		movs	r3, #125
 1029 0074 3922     		movs	r2, #57
 1030 0076 5F21     		movs	r1, #95
 1031 0078 1046     		mov	r0, r2
 1032 007a FFF7FEFF 		bl	GUI_DrawLine
 1033              	.LVL78:
 320:main.c        ****     
 321:main.c        ****     GUI_DrawLine(70, 100, 70, 140); // Bar 2
 1034              		.loc 1 321 0
 1035 007e 8C23     		movs	r3, #140
 1036 0080 4622     		movs	r2, #70
 1037 0082 6421     		movs	r1, #100
 1038 0084 1046     		mov	r0, r2
 1039 0086 FFF7FEFF 		bl	GUI_DrawLine
 1040              	.LVL79:
 322:main.c        ****     
 323:main.c        ****     GUI_FillCircle(80, 95, 3);
 1041              		.loc 1 323 0
 1042 008a 0322     		movs	r2, #3
 1043 008c 5F21     		movs	r1, #95
 1044 008e 5020     		movs	r0, #80
 1045 0090 FFF7FEFF 		bl	GUI_FillCircle
ARM GAS  C:\Users\simon\AppData\Local\Temp\ccnYhktc.s 			page 25


 1046              	.LVL80:
 324:main.c        ****     GUI_DrawLine(77, 95, 77, 125); // G quarter
 1047              		.loc 1 324 0
 1048 0094 7D23     		movs	r3, #125
 1049 0096 4D22     		movs	r2, #77
 1050 0098 5F21     		movs	r1, #95
 1051 009a 1046     		mov	r0, r2
 1052 009c FFF7FEFF 		bl	GUI_DrawLine
 1053              	.LVL81:
 325:main.c        ****     
 326:main.c        ****     GUI_FillCircle(90, 100, 3);
 1054              		.loc 1 326 0
 1055 00a0 0322     		movs	r2, #3
 1056 00a2 6421     		movs	r1, #100
 1057 00a4 5A20     		movs	r0, #90
 1058 00a6 FFF7FEFF 		bl	GUI_FillCircle
 1059              	.LVL82:
 327:main.c        ****     GUI_DrawLine(87, 100, 87, 130); // F quarter
 1060              		.loc 1 327 0
 1061 00aa 8223     		movs	r3, #130
 1062 00ac 5722     		movs	r2, #87
 1063 00ae 6421     		movs	r1, #100
 1064 00b0 1046     		mov	r0, r2
 1065 00b2 FFF7FEFF 		bl	GUI_DrawLine
 1066              	.LVL83:
 328:main.c        ****     
 329:main.c        ****     GUI_FillCircle(100, 105, 3);
 1067              		.loc 1 329 0
 1068 00b6 0322     		movs	r2, #3
 1069 00b8 6921     		movs	r1, #105
 1070 00ba 6420     		movs	r0, #100
 1071 00bc FFF7FEFF 		bl	GUI_FillCircle
 1072              	.LVL84:
 330:main.c        ****     GUI_DrawLine(97, 105, 97, 135); // E quarter
 1073              		.loc 1 330 0
 1074 00c0 8723     		movs	r3, #135
 1075 00c2 6122     		movs	r2, #97
 1076 00c4 6921     		movs	r1, #105
 1077 00c6 1046     		mov	r0, r2
 1078 00c8 FFF7FEFF 		bl	GUI_DrawLine
 1079              	.LVL85:
 331:main.c        ****     
 332:main.c        ****     GUI_FillCircle(110, 110, 3);
 1080              		.loc 1 332 0
 1081 00cc 0322     		movs	r2, #3
 1082 00ce 6E21     		movs	r1, #110
 1083 00d0 0846     		mov	r0, r1
 1084 00d2 FFF7FEFF 		bl	GUI_FillCircle
 1085              	.LVL86:
 333:main.c        ****     GUI_DrawLine(107, 110, 107, 140); // D quarter
 1086              		.loc 1 333 0
 1087 00d6 8C23     		movs	r3, #140
 1088 00d8 6B22     		movs	r2, #107
 1089 00da 6E21     		movs	r1, #110
 1090 00dc 1046     		mov	r0, r2
 1091 00de FFF7FEFF 		bl	GUI_DrawLine
 1092              	.LVL87:
ARM GAS  C:\Users\simon\AppData\Local\Temp\ccnYhktc.s 			page 26


 334:main.c        ****     
 335:main.c        ****     GUI_DrawLine(120, 100, 120, 140); // Bar 3
 1093              		.loc 1 335 0
 1094 00e2 8C23     		movs	r3, #140
 1095 00e4 7822     		movs	r2, #120
 1096 00e6 6421     		movs	r1, #100
 1097 00e8 1046     		mov	r0, r2
 1098 00ea FFF7FEFF 		bl	GUI_DrawLine
 1099              	.LVL88:
 336:main.c        ****     
 337:main.c        ****     GUI_FillCircle(130, 115, 3);
 1100              		.loc 1 337 0
 1101 00ee 0322     		movs	r2, #3
 1102 00f0 7321     		movs	r1, #115
 1103 00f2 8220     		movs	r0, #130
 1104 00f4 FFF7FEFF 		bl	GUI_FillCircle
 1105              	.LVL89:
 338:main.c        ****     GUI_DrawLine(127, 115, 127, 145); // C quarter
 1106              		.loc 1 338 0
 1107 00f8 9123     		movs	r3, #145
 1108 00fa 7F22     		movs	r2, #127
 1109 00fc 7321     		movs	r1, #115
 1110 00fe 1046     		mov	r0, r2
 1111 0100 FFF7FEFF 		bl	GUI_DrawLine
 1112              	.LVL90:
 339:main.c        ****     
 340:main.c        ****     GUI_FillCircle(140, 115, 3);
 1113              		.loc 1 340 0
 1114 0104 0322     		movs	r2, #3
 1115 0106 7321     		movs	r1, #115
 1116 0108 8C20     		movs	r0, #140
 1117 010a FFF7FEFF 		bl	GUI_FillCircle
 1118              	.LVL91:
 341:main.c        ****     GUI_DrawLine(137, 115, 137, 145); // C quarter
 1119              		.loc 1 341 0
 1120 010e 9123     		movs	r3, #145
 1121 0110 8922     		movs	r2, #137
 1122 0112 7321     		movs	r1, #115
 1123 0114 1046     		mov	r0, r2
 1124 0116 FFF7FEFF 		bl	GUI_DrawLine
 1125              	.LVL92:
 342:main.c        ****     
 343:main.c        ****     GUI_FillCircle(150, 110, 3);
 1126              		.loc 1 343 0
 1127 011a 0322     		movs	r2, #3
 1128 011c 6E21     		movs	r1, #110
 1129 011e 9620     		movs	r0, #150
 1130 0120 FFF7FEFF 		bl	GUI_FillCircle
 1131              	.LVL93:
 344:main.c        ****     GUI_DrawLine(147, 110, 147, 140); // D quarter
 1132              		.loc 1 344 0
 1133 0124 8C23     		movs	r3, #140
 1134 0126 9322     		movs	r2, #147
 1135 0128 6E21     		movs	r1, #110
 1136 012a 1046     		mov	r0, r2
 1137 012c FFF7FEFF 		bl	GUI_DrawLine
 1138              	.LVL94:
ARM GAS  C:\Users\simon\AppData\Local\Temp\ccnYhktc.s 			page 27


 345:main.c        ****     
 346:main.c        ****     GUI_FillCircle(160, 105, 3);
 1139              		.loc 1 346 0
 1140 0130 0322     		movs	r2, #3
 1141 0132 6921     		movs	r1, #105
 1142 0134 A020     		movs	r0, #160
 1143 0136 FFF7FEFF 		bl	GUI_FillCircle
 1144              	.LVL95:
 347:main.c        ****     GUI_DrawLine(157, 105, 157, 135); // E quarter
 1145              		.loc 1 347 0
 1146 013a 8723     		movs	r3, #135
 1147 013c 9D22     		movs	r2, #157
 1148 013e 6921     		movs	r1, #105
 1149 0140 1046     		mov	r0, r2
 1150 0142 FFF7FEFF 		bl	GUI_DrawLine
 1151              	.LVL96:
 348:main.c        ****     
 349:main.c        ****     GUI_DrawLine(170, 100, 170, 140); // Bar 4
 1152              		.loc 1 349 0
 1153 0146 8C23     		movs	r3, #140
 1154 0148 AA22     		movs	r2, #170
 1155 014a 6421     		movs	r1, #100
 1156 014c 1046     		mov	r0, r2
 1157 014e FFF7FEFF 		bl	GUI_DrawLine
 1158              	.LVL97:
 350:main.c        ****     
 351:main.c        ****     GUI_FillCircle(180, 105, 3);
 1159              		.loc 1 351 0
 1160 0152 0322     		movs	r2, #3
 1161 0154 6921     		movs	r1, #105
 1162 0156 B420     		movs	r0, #180
 1163 0158 FFF7FEFF 		bl	GUI_FillCircle
 1164              	.LVL98:
 352:main.c        ****     GUI_DrawLine(177, 105, 177, 135); // E quarter
 1165              		.loc 1 352 0
 1166 015c 8723     		movs	r3, #135
 1167 015e B122     		movs	r2, #177
 1168 0160 6921     		movs	r1, #105
 1169 0162 1046     		mov	r0, r2
 1170 0164 FFF7FEFF 		bl	GUI_DrawLine
 1171              	.LVL99:
 353:main.c        ****     
 354:main.c        ****     GUI_FillCircle(190, 110, 3);
 1172              		.loc 1 354 0
 1173 0168 0322     		movs	r2, #3
 1174 016a 6E21     		movs	r1, #110
 1175 016c BE20     		movs	r0, #190
 1176 016e FFF7FEFF 		bl	GUI_FillCircle
 1177              	.LVL100:
 355:main.c        ****     GUI_DrawLine(187, 110, 187, 140); // D quarter
 1178              		.loc 1 355 0
 1179 0172 8C23     		movs	r3, #140
 1180 0174 BB22     		movs	r2, #187
 1181 0176 6E21     		movs	r1, #110
 1182 0178 1046     		mov	r0, r2
 1183 017a FFF7FEFF 		bl	GUI_DrawLine
 1184              	.LVL101:
ARM GAS  C:\Users\simon\AppData\Local\Temp\ccnYhktc.s 			page 28


 356:main.c        ****     
 357:main.c        ****     GUI_DrawCircle(200, 110, 3);
 1185              		.loc 1 357 0
 1186 017e 0322     		movs	r2, #3
 1187 0180 6E21     		movs	r1, #110
 1188 0182 C820     		movs	r0, #200
 1189 0184 FFF7FEFF 		bl	GUI_DrawCircle
 1190              	.LVL102:
 358:main.c        ****     GUI_DrawLine(197, 110, 197, 140); // D half
 1191              		.loc 1 358 0
 1192 0188 8C23     		movs	r3, #140
 1193 018a C522     		movs	r2, #197
 1194 018c 6E21     		movs	r1, #110
 1195 018e 1046     		mov	r0, r2
 1196 0190 FFF7FEFF 		bl	GUI_DrawLine
 1197              	.LVL103:
 359:main.c        ****     
 360:main.c        ****     GUI_DrawLine(220, 100, 220, 140); // End
 1198              		.loc 1 360 0
 1199 0194 8C23     		movs	r3, #140
 1200 0196 DC22     		movs	r2, #220
 1201 0198 6421     		movs	r1, #100
 1202 019a 1046     		mov	r0, r2
 1203 019c FFF7FEFF 		bl	GUI_DrawLine
 1204              	.LVL104:
 361:main.c        ****     
 362:main.c        ****     // Note Lines
 363:main.c        ****     
 364:main.c        ****     GUI_DrawLine(20, 100, 220, 100);
 1205              		.loc 1 364 0
 1206 01a0 6423     		movs	r3, #100
 1207 01a2 DC22     		movs	r2, #220
 1208 01a4 1946     		mov	r1, r3
 1209 01a6 1420     		movs	r0, #20
 1210 01a8 FFF7FEFF 		bl	GUI_DrawLine
 1211              	.LVL105:
 365:main.c        ****     GUI_DrawLine(20, 110, 220, 110);
 1212              		.loc 1 365 0
 1213 01ac 6E23     		movs	r3, #110
 1214 01ae DC22     		movs	r2, #220
 1215 01b0 1946     		mov	r1, r3
 1216 01b2 1420     		movs	r0, #20
 1217 01b4 FFF7FEFF 		bl	GUI_DrawLine
 1218              	.LVL106:
 366:main.c        ****     GUI_DrawLine(20, 120,220, 120);
 1219              		.loc 1 366 0
 1220 01b8 7823     		movs	r3, #120
 1221 01ba DC22     		movs	r2, #220
 1222 01bc 1946     		mov	r1, r3
 1223 01be 1420     		movs	r0, #20
 1224 01c0 FFF7FEFF 		bl	GUI_DrawLine
 1225              	.LVL107:
 367:main.c        ****     GUI_DrawLine(20, 130, 220, 130);
 1226              		.loc 1 367 0
 1227 01c4 8223     		movs	r3, #130
 1228 01c6 DC22     		movs	r2, #220
 1229 01c8 1946     		mov	r1, r3
ARM GAS  C:\Users\simon\AppData\Local\Temp\ccnYhktc.s 			page 29


 1230 01ca 1420     		movs	r0, #20
 1231 01cc FFF7FEFF 		bl	GUI_DrawLine
 1232              	.LVL108:
 368:main.c        ****     GUI_DrawLine(20, 140, 220, 140);
 1233              		.loc 1 368 0
 1234 01d0 8C23     		movs	r3, #140
 1235 01d2 DC22     		movs	r2, #220
 1236 01d4 1946     		mov	r1, r3
 1237 01d6 1420     		movs	r0, #20
 1238 01d8 FFF7FEFF 		bl	GUI_DrawLine
 1239              	.LVL109:
 369:main.c        ****     
 370:main.c        ****     GUI_SetFont(&GUI_Font8x16);
 1240              		.loc 1 370 0
 1241 01dc 0E48     		ldr	r0, .L98+8
 1242 01de FFF7FEFF 		bl	GUI_SetFont
 1243              	.LVL110:
 371:main.c        ****     GUI_DispStringAt("Desired", 20, 200);
 1244              		.loc 1 371 0
 1245 01e2 C822     		movs	r2, #200
 1246 01e4 1421     		movs	r1, #20
 1247 01e6 0D48     		ldr	r0, .L98+12
 1248 01e8 FFF7FEFF 		bl	GUI_DispStringAt
 1249              	.LVL111:
 372:main.c        ****     GUI_DispStringAt("Note", 20, 220);
 1250              		.loc 1 372 0
 1251 01ec 0C4C     		ldr	r4, .L98+16
 1252 01ee DC22     		movs	r2, #220
 1253 01f0 1421     		movs	r1, #20
 1254 01f2 2046     		mov	r0, r4
 1255 01f4 FFF7FEFF 		bl	GUI_DispStringAt
 1256              	.LVL112:
 373:main.c        ****     GUI_DispStringAt("Played", 160, 200);
 1257              		.loc 1 373 0
 1258 01f8 C822     		movs	r2, #200
 1259 01fa A021     		movs	r1, #160
 1260 01fc 0948     		ldr	r0, .L98+20
 1261 01fe FFF7FEFF 		bl	GUI_DispStringAt
 1262              	.LVL113:
 374:main.c        ****     GUI_DispStringAt("Note", 160, 220);
 1263              		.loc 1 374 0
 1264 0202 DC22     		movs	r2, #220
 1265 0204 A021     		movs	r1, #160
 1266 0206 2046     		mov	r0, r4
 1267 0208 FFF7FEFF 		bl	GUI_DispStringAt
 1268              	.LVL114:
 1269 020c 10BD     		pop	{r4, pc}
 1270              	.L99:
 1271 020e 00BF     		.align	2
 1272              	.L98:
 1273 0210 00000000 		.word	GUI_Font8x16x2x2
 1274 0214 00000000 		.word	.LC0
 1275 0218 00000000 		.word	GUI_Font8x16
 1276 021c 0C000000 		.word	.LC1
 1277 0220 14000000 		.word	.LC2
 1278 0224 1C000000 		.word	.LC3
 1279              		.cfi_endproc
ARM GAS  C:\Users\simon\AppData\Local\Temp\ccnYhktc.s 			page 30


 1280              	.LFE68:
 1281              		.size	DisplayInit, .-DisplayInit
 1282              		.section	.text.displayNotes,"ax",%progbits
 1283              		.align	2
 1284              		.global	displayNotes
 1285              		.thumb
 1286              		.thumb_func
 1287              		.type	displayNotes, %function
 1288              	displayNotes:
 1289              	.LFB69:
 375:main.c        ****     
 376:main.c        **** }
 377:main.c        **** 
 378:main.c        **** void displayNotes() {
 1290              		.loc 1 378 0
 1291              		.cfi_startproc
 1292              		@ args = 0, pretend = 0, frame = 0
 1293              		@ frame_needed = 0, uses_anonymous_args = 0
 1294 0000 08B5     		push	{r3, lr}
 1295              		.cfi_def_cfa_offset 8
 1296              		.cfi_offset 3, -8
 1297              		.cfi_offset 14, -4
 379:main.c        ****     
 380:main.c        ****     GUI_SetFont(&GUI_Font8x16x2x2);
 1298              		.loc 1 380 0
 1299 0002 A548     		ldr	r0, .L164
 1300 0004 FFF7FEFF 		bl	GUI_SetFont
 1301              	.LVL115:
 381:main.c        **** 
 382:main.c        ****     switch (desired_notes[desired_note_index]) {
 1302              		.loc 1 382 0
 1303 0008 A44B     		ldr	r3, .L164+4
 1304 000a 5B7B     		ldrb	r3, [r3, #13]	@ zero_extendqisi2
 1305 000c A44A     		ldr	r2, .L164+8
 1306 000e 1344     		add	r3, r3, r2
 1307 0010 93F85430 		ldrb	r3, [r3, #84]	@ zero_extendqisi2
 1308 0014 1B2B     		cmp	r3, #27
 1309 0016 00F2B780 		bhi	.L101
 1310 001a DFE803F0 		tbb	[pc, r3]
 1311              	.L103:
 1312 001e 0E       		.byte	(.L102-.L103)/2
 1313 001f 14       		.byte	(.L104-.L103)/2
 1314 0020 1A       		.byte	(.L105-.L103)/2
 1315 0021 20       		.byte	(.L106-.L103)/2
 1316 0022 26       		.byte	(.L107-.L103)/2
 1317 0023 2C       		.byte	(.L108-.L103)/2
 1318 0024 32       		.byte	(.L109-.L103)/2
 1319 0025 38       		.byte	(.L110-.L103)/2
 1320 0026 3E       		.byte	(.L111-.L103)/2
 1321 0027 44       		.byte	(.L112-.L103)/2
 1322 0028 4A       		.byte	(.L113-.L103)/2
 1323 0029 50       		.byte	(.L114-.L103)/2
 1324 002a 56       		.byte	(.L115-.L103)/2
 1325 002b 5C       		.byte	(.L116-.L103)/2
 1326 002c 62       		.byte	(.L117-.L103)/2
 1327 002d 68       		.byte	(.L118-.L103)/2
 1328 002e 6E       		.byte	(.L119-.L103)/2
ARM GAS  C:\Users\simon\AppData\Local\Temp\ccnYhktc.s 			page 31


 1329 002f 74       		.byte	(.L120-.L103)/2
 1330 0030 7A       		.byte	(.L121-.L103)/2
 1331 0031 80       		.byte	(.L122-.L103)/2
 1332 0032 86       		.byte	(.L123-.L103)/2
 1333 0033 8C       		.byte	(.L124-.L103)/2
 1334 0034 92       		.byte	(.L125-.L103)/2
 1335 0035 98       		.byte	(.L126-.L103)/2
 1336 0036 9E       		.byte	(.L127-.L103)/2
 1337 0037 A4       		.byte	(.L128-.L103)/2
 1338 0038 AA       		.byte	(.L129-.L103)/2
 1339 0039 B0       		.byte	(.L130-.L103)/2
 1340              		.p2align 1
 1341              	.L102:
 383:main.c        ****         case Bb1: GUI_DispStringAt("Bb-1", 20, 240); break;
 1342              		.loc 1 383 0
 1343 003a F022     		movs	r2, #240
 1344 003c 1421     		movs	r1, #20
 1345 003e 9948     		ldr	r0, .L164+12
 1346 0040 FFF7FEFF 		bl	GUI_DispStringAt
 1347              	.LVL116:
 1348 0044 A0E0     		b	.L101
 1349              	.L104:
 384:main.c        ****         case B1: GUI_DispStringAt("B-1 ", 20, 240); break;
 1350              		.loc 1 384 0
 1351 0046 F022     		movs	r2, #240
 1352 0048 1421     		movs	r1, #20
 1353 004a 9748     		ldr	r0, .L164+16
 1354 004c FFF7FEFF 		bl	GUI_DispStringAt
 1355              	.LVL117:
 1356 0050 9AE0     		b	.L101
 1357              	.L105:
 385:main.c        ****         case C2: GUI_DispStringAt("C-2 ", 20, 240); break;
 1358              		.loc 1 385 0
 1359 0052 F022     		movs	r2, #240
 1360 0054 1421     		movs	r1, #20
 1361 0056 9548     		ldr	r0, .L164+20
 1362 0058 FFF7FEFF 		bl	GUI_DispStringAt
 1363              	.LVL118:
 1364 005c 94E0     		b	.L101
 1365              	.L106:
 386:main.c        ****         case Csharp2: GUI_DispStringAt("C#-2", 20, 240); break;
 1366              		.loc 1 386 0
 1367 005e F022     		movs	r2, #240
 1368 0060 1421     		movs	r1, #20
 1369 0062 9348     		ldr	r0, .L164+24
 1370 0064 FFF7FEFF 		bl	GUI_DispStringAt
 1371              	.LVL119:
 1372 0068 8EE0     		b	.L101
 1373              	.L107:
 387:main.c        ****         case D2: GUI_DispStringAt("D-2 ", 20, 240); break;
 1374              		.loc 1 387 0
 1375 006a F022     		movs	r2, #240
 1376 006c 1421     		movs	r1, #20
 1377 006e 9148     		ldr	r0, .L164+28
 1378 0070 FFF7FEFF 		bl	GUI_DispStringAt
 1379              	.LVL120:
 1380 0074 88E0     		b	.L101
ARM GAS  C:\Users\simon\AppData\Local\Temp\ccnYhktc.s 			page 32


 1381              	.L108:
 388:main.c        ****         case Dsharp2: GUI_DispStringAt("D#-2", 20, 240); break;
 1382              		.loc 1 388 0
 1383 0076 F022     		movs	r2, #240
 1384 0078 1421     		movs	r1, #20
 1385 007a 8F48     		ldr	r0, .L164+32
 1386 007c FFF7FEFF 		bl	GUI_DispStringAt
 1387              	.LVL121:
 1388 0080 82E0     		b	.L101
 1389              	.L109:
 389:main.c        ****         case E2: GUI_DispStringAt("E-2 ", 20, 240); break;
 1390              		.loc 1 389 0
 1391 0082 F022     		movs	r2, #240
 1392 0084 1421     		movs	r1, #20
 1393 0086 8D48     		ldr	r0, .L164+36
 1394 0088 FFF7FEFF 		bl	GUI_DispStringAt
 1395              	.LVL122:
 1396 008c 7CE0     		b	.L101
 1397              	.L110:
 390:main.c        ****         case F2: GUI_DispStringAt("F-2 ", 20, 240); break;
 1398              		.loc 1 390 0
 1399 008e F022     		movs	r2, #240
 1400 0090 1421     		movs	r1, #20
 1401 0092 8B48     		ldr	r0, .L164+40
 1402 0094 FFF7FEFF 		bl	GUI_DispStringAt
 1403              	.LVL123:
 1404 0098 76E0     		b	.L101
 1405              	.L111:
 391:main.c        ****         case Fsharp2: GUI_DispStringAt("F#-2", 20, 240); break;
 1406              		.loc 1 391 0
 1407 009a F022     		movs	r2, #240
 1408 009c 1421     		movs	r1, #20
 1409 009e 8948     		ldr	r0, .L164+44
 1410 00a0 FFF7FEFF 		bl	GUI_DispStringAt
 1411              	.LVL124:
 1412 00a4 70E0     		b	.L101
 1413              	.L112:
 392:main.c        ****         case G2: GUI_DispStringAt("G-2 ", 20, 240); break;
 1414              		.loc 1 392 0
 1415 00a6 F022     		movs	r2, #240
 1416 00a8 1421     		movs	r1, #20
 1417 00aa 8748     		ldr	r0, .L164+48
 1418 00ac FFF7FEFF 		bl	GUI_DispStringAt
 1419              	.LVL125:
 1420 00b0 6AE0     		b	.L101
 1421              	.L113:
 393:main.c        ****         case Gsharp2: GUI_DispStringAt("G#-2", 20, 240); break;
 1422              		.loc 1 393 0
 1423 00b2 F022     		movs	r2, #240
 1424 00b4 1421     		movs	r1, #20
 1425 00b6 8548     		ldr	r0, .L164+52
 1426 00b8 FFF7FEFF 		bl	GUI_DispStringAt
 1427              	.LVL126:
 1428 00bc 64E0     		b	.L101
 1429              	.L114:
 394:main.c        ****         case A2: GUI_DispStringAt("A-2 ", 20, 240); break;
 1430              		.loc 1 394 0
ARM GAS  C:\Users\simon\AppData\Local\Temp\ccnYhktc.s 			page 33


 1431 00be F022     		movs	r2, #240
 1432 00c0 1421     		movs	r1, #20
 1433 00c2 8348     		ldr	r0, .L164+56
 1434 00c4 FFF7FEFF 		bl	GUI_DispStringAt
 1435              	.LVL127:
 1436 00c8 5EE0     		b	.L101
 1437              	.L115:
 395:main.c        ****         case Bb2: GUI_DispStringAt("Bb-2", 20, 240); break;
 1438              		.loc 1 395 0
 1439 00ca F022     		movs	r2, #240
 1440 00cc 1421     		movs	r1, #20
 1441 00ce 8148     		ldr	r0, .L164+60
 1442 00d0 FFF7FEFF 		bl	GUI_DispStringAt
 1443              	.LVL128:
 1444 00d4 58E0     		b	.L101
 1445              	.L116:
 396:main.c        ****         case B2: GUI_DispStringAt("B-2 ", 20, 240); break;
 1446              		.loc 1 396 0
 1447 00d6 F022     		movs	r2, #240
 1448 00d8 1421     		movs	r1, #20
 1449 00da 7F48     		ldr	r0, .L164+64
 1450 00dc FFF7FEFF 		bl	GUI_DispStringAt
 1451              	.LVL129:
 1452 00e0 52E0     		b	.L101
 1453              	.L117:
 397:main.c        ****         case C3: GUI_DispStringAt("C-3 ", 20, 240); break;
 1454              		.loc 1 397 0
 1455 00e2 F022     		movs	r2, #240
 1456 00e4 1421     		movs	r1, #20
 1457 00e6 7D48     		ldr	r0, .L164+68
 1458 00e8 FFF7FEFF 		bl	GUI_DispStringAt
 1459              	.LVL130:
 1460 00ec 4CE0     		b	.L101
 1461              	.L118:
 398:main.c        ****         case Csharp3: GUI_DispStringAt("C#-3", 20, 240); break;
 1462              		.loc 1 398 0
 1463 00ee F022     		movs	r2, #240
 1464 00f0 1421     		movs	r1, #20
 1465 00f2 7B48     		ldr	r0, .L164+72
 1466 00f4 FFF7FEFF 		bl	GUI_DispStringAt
 1467              	.LVL131:
 1468 00f8 46E0     		b	.L101
 1469              	.L119:
 399:main.c        ****         case D3: GUI_DispStringAt("D-3 ", 20, 240); break;
 1470              		.loc 1 399 0
 1471 00fa F022     		movs	r2, #240
 1472 00fc 1421     		movs	r1, #20
 1473 00fe 7948     		ldr	r0, .L164+76
 1474 0100 FFF7FEFF 		bl	GUI_DispStringAt
 1475              	.LVL132:
 1476 0104 40E0     		b	.L101
 1477              	.L120:
 400:main.c        ****         case Dsharp3: GUI_DispStringAt("D#-3", 20, 240); break;
 1478              		.loc 1 400 0
 1479 0106 F022     		movs	r2, #240
 1480 0108 1421     		movs	r1, #20
 1481 010a 7748     		ldr	r0, .L164+80
ARM GAS  C:\Users\simon\AppData\Local\Temp\ccnYhktc.s 			page 34


 1482 010c FFF7FEFF 		bl	GUI_DispStringAt
 1483              	.LVL133:
 1484 0110 3AE0     		b	.L101
 1485              	.L121:
 401:main.c        ****         case E3: GUI_DispStringAt("E-3 ", 20, 240); break;
 1486              		.loc 1 401 0
 1487 0112 F022     		movs	r2, #240
 1488 0114 1421     		movs	r1, #20
 1489 0116 7548     		ldr	r0, .L164+84
 1490 0118 FFF7FEFF 		bl	GUI_DispStringAt
 1491              	.LVL134:
 1492 011c 34E0     		b	.L101
 1493              	.L122:
 402:main.c        ****         case F3: GUI_DispStringAt("F-3 ", 20, 240); break;
 1494              		.loc 1 402 0
 1495 011e F022     		movs	r2, #240
 1496 0120 1421     		movs	r1, #20
 1497 0122 7348     		ldr	r0, .L164+88
 1498 0124 FFF7FEFF 		bl	GUI_DispStringAt
 1499              	.LVL135:
 1500 0128 2EE0     		b	.L101
 1501              	.L123:
 403:main.c        ****         case Fsharp3: GUI_DispStringAt("F#-3", 20, 240); break;
 1502              		.loc 1 403 0
 1503 012a F022     		movs	r2, #240
 1504 012c 1421     		movs	r1, #20
 1505 012e 7148     		ldr	r0, .L164+92
 1506 0130 FFF7FEFF 		bl	GUI_DispStringAt
 1507              	.LVL136:
 1508 0134 28E0     		b	.L101
 1509              	.L124:
 404:main.c        ****         case G3: GUI_DispStringAt("G-3 ", 20, 240); break;
 1510              		.loc 1 404 0
 1511 0136 F022     		movs	r2, #240
 1512 0138 1421     		movs	r1, #20
 1513 013a 6F48     		ldr	r0, .L164+96
 1514 013c FFF7FEFF 		bl	GUI_DispStringAt
 1515              	.LVL137:
 1516 0140 22E0     		b	.L101
 1517              	.L125:
 405:main.c        ****         case Gsharp3: GUI_DispStringAt("G#-3", 20, 240); break;
 1518              		.loc 1 405 0
 1519 0142 F022     		movs	r2, #240
 1520 0144 1421     		movs	r1, #20
 1521 0146 6D48     		ldr	r0, .L164+100
 1522 0148 FFF7FEFF 		bl	GUI_DispStringAt
 1523              	.LVL138:
 1524 014c 1CE0     		b	.L101
 1525              	.L126:
 406:main.c        ****         case A3: GUI_DispStringAt("A-3 ", 20, 240); break;
 1526              		.loc 1 406 0
 1527 014e F022     		movs	r2, #240
 1528 0150 1421     		movs	r1, #20
 1529 0152 6B48     		ldr	r0, .L164+104
 1530 0154 FFF7FEFF 		bl	GUI_DispStringAt
 1531              	.LVL139:
 1532 0158 16E0     		b	.L101
ARM GAS  C:\Users\simon\AppData\Local\Temp\ccnYhktc.s 			page 35


 1533              	.L127:
 407:main.c        ****         case Bb3: GUI_DispStringAt("Bb-3", 20, 240); break;
 1534              		.loc 1 407 0
 1535 015a F022     		movs	r2, #240
 1536 015c 1421     		movs	r1, #20
 1537 015e 6948     		ldr	r0, .L164+108
 1538 0160 FFF7FEFF 		bl	GUI_DispStringAt
 1539              	.LVL140:
 1540 0164 10E0     		b	.L101
 1541              	.L128:
 408:main.c        ****         case B3: GUI_DispStringAt("B-3 ", 20, 240); break;
 1542              		.loc 1 408 0
 1543 0166 F022     		movs	r2, #240
 1544 0168 1421     		movs	r1, #20
 1545 016a 6748     		ldr	r0, .L164+112
 1546 016c FFF7FEFF 		bl	GUI_DispStringAt
 1547              	.LVL141:
 1548 0170 0AE0     		b	.L101
 1549              	.L129:
 409:main.c        ****         case C4: GUI_DispStringAt("C-4 ", 20, 240); break;
 1550              		.loc 1 409 0
 1551 0172 F022     		movs	r2, #240
 1552 0174 1421     		movs	r1, #20
 1553 0176 6548     		ldr	r0, .L164+116
 1554 0178 FFF7FEFF 		bl	GUI_DispStringAt
 1555              	.LVL142:
 1556 017c 04E0     		b	.L101
 1557              	.L130:
 410:main.c        ****         case Csharp4: GUI_DispStringAt("C#-4", 20, 240); break;
 1558              		.loc 1 410 0
 1559 017e F022     		movs	r2, #240
 1560 0180 1421     		movs	r1, #20
 1561 0182 6348     		ldr	r0, .L164+120
 1562 0184 FFF7FEFF 		bl	GUI_DispStringAt
 1563              	.LVL143:
 1564              	.L101:
 411:main.c        ****     }
 412:main.c        ****     
 413:main.c        ****     if (note == desired_notes[desired_note_index]) {
 1565              		.loc 1 413 0
 1566 0188 444B     		ldr	r3, .L164+4
 1567 018a 5B7B     		ldrb	r3, [r3, #13]	@ zero_extendqisi2
 1568 018c 444A     		ldr	r2, .L164+8
 1569 018e 1344     		add	r3, r3, r2
 1570 0190 93F85410 		ldrb	r1, [r3, #84]	@ zero_extendqisi2
 1571 0194 137D     		ldrb	r3, [r2, #20]	@ zero_extendqisi2
 1572 0196 DBB2     		uxtb	r3, r3
 1573 0198 9942     		cmp	r1, r3
 1574 019a 05D1     		bne	.L131
 414:main.c        ****         GUI_DispStringAt("==", 104, 240);
 1575              		.loc 1 414 0
 1576 019c F022     		movs	r2, #240
 1577 019e 6821     		movs	r1, #104
 1578 01a0 5C48     		ldr	r0, .L164+124
 1579 01a2 FFF7FEFF 		bl	GUI_DispStringAt
 1580              	.LVL144:
 1581 01a6 04E0     		b	.L132
ARM GAS  C:\Users\simon\AppData\Local\Temp\ccnYhktc.s 			page 36


 1582              	.L131:
 415:main.c        ****     } else {
 416:main.c        ****         GUI_DispStringAt("!=", 104, 240);
 1583              		.loc 1 416 0
 1584 01a8 F022     		movs	r2, #240
 1585 01aa 6821     		movs	r1, #104
 1586 01ac 5A48     		ldr	r0, .L164+128
 1587 01ae FFF7FEFF 		bl	GUI_DispStringAt
 1588              	.LVL145:
 1589              	.L132:
 417:main.c        ****     }
 418:main.c        ****     
 419:main.c        ****     switch (note) {
 1590              		.loc 1 419 0
 1591 01b2 3B4B     		ldr	r3, .L164+8
 1592 01b4 1B7D     		ldrb	r3, [r3, #20]	@ zero_extendqisi2
 1593 01b6 DBB2     		uxtb	r3, r3
 1594 01b8 1B2B     		cmp	r3, #27
 1595 01ba 00F20881 		bhi	.L100
 1596 01be DFE813F0 		tbh	[pc, r3, lsl #1]
 1597              	.L135:
 1598 01c2 1C00     		.2byte	(.L134-.L135)/2
 1599 01c4 2200     		.2byte	(.L136-.L135)/2
 1600 01c6 2800     		.2byte	(.L137-.L135)/2
 1601 01c8 2E00     		.2byte	(.L138-.L135)/2
 1602 01ca 3400     		.2byte	(.L139-.L135)/2
 1603 01cc 3A00     		.2byte	(.L140-.L135)/2
 1604 01ce 4000     		.2byte	(.L141-.L135)/2
 1605 01d0 4600     		.2byte	(.L142-.L135)/2
 1606 01d2 4C00     		.2byte	(.L143-.L135)/2
 1607 01d4 5200     		.2byte	(.L144-.L135)/2
 1608 01d6 5800     		.2byte	(.L145-.L135)/2
 1609 01d8 5E00     		.2byte	(.L146-.L135)/2
 1610 01da 6400     		.2byte	(.L147-.L135)/2
 1611 01dc AD00     		.2byte	(.L148-.L135)/2
 1612 01de B300     		.2byte	(.L149-.L135)/2
 1613 01e0 B900     		.2byte	(.L150-.L135)/2
 1614 01e2 BF00     		.2byte	(.L151-.L135)/2
 1615 01e4 C500     		.2byte	(.L152-.L135)/2
 1616 01e6 CB00     		.2byte	(.L153-.L135)/2
 1617 01e8 D100     		.2byte	(.L154-.L135)/2
 1618 01ea D700     		.2byte	(.L155-.L135)/2
 1619 01ec DD00     		.2byte	(.L156-.L135)/2
 1620 01ee E300     		.2byte	(.L157-.L135)/2
 1621 01f0 E900     		.2byte	(.L158-.L135)/2
 1622 01f2 EF00     		.2byte	(.L159-.L135)/2
 1623 01f4 F500     		.2byte	(.L160-.L135)/2
 1624 01f6 FB00     		.2byte	(.L161-.L135)/2
 1625 01f8 0101     		.2byte	(.L162-.L135)/2
 1626              		.p2align 1
 1627              	.L134:
 420:main.c        ****         case Bb1: GUI_DispStringAt("Bb-1", 160, 240); break;
 1628              		.loc 1 420 0
 1629 01fa F022     		movs	r2, #240
 1630 01fc A021     		movs	r1, #160
 1631 01fe 2948     		ldr	r0, .L164+12
 1632 0200 FFF7FEFF 		bl	GUI_DispStringAt
ARM GAS  C:\Users\simon\AppData\Local\Temp\ccnYhktc.s 			page 37


 1633              	.LVL146:
 1634 0204 08BD     		pop	{r3, pc}
 1635              	.L136:
 421:main.c        ****         case B1: GUI_DispStringAt("B-1 ", 160, 240); break;
 1636              		.loc 1 421 0
 1637 0206 F022     		movs	r2, #240
 1638 0208 A021     		movs	r1, #160
 1639 020a 2748     		ldr	r0, .L164+16
 1640 020c FFF7FEFF 		bl	GUI_DispStringAt
 1641              	.LVL147:
 1642 0210 08BD     		pop	{r3, pc}
 1643              	.L137:
 422:main.c        ****         case C2: GUI_DispStringAt("C-2 ", 160, 240); break;
 1644              		.loc 1 422 0
 1645 0212 F022     		movs	r2, #240
 1646 0214 A021     		movs	r1, #160
 1647 0216 2548     		ldr	r0, .L164+20
 1648 0218 FFF7FEFF 		bl	GUI_DispStringAt
 1649              	.LVL148:
 1650 021c 08BD     		pop	{r3, pc}
 1651              	.L138:
 423:main.c        ****         case Csharp2: GUI_DispStringAt("C#-2", 160, 240); break;
 1652              		.loc 1 423 0
 1653 021e F022     		movs	r2, #240
 1654 0220 A021     		movs	r1, #160
 1655 0222 2348     		ldr	r0, .L164+24
 1656 0224 FFF7FEFF 		bl	GUI_DispStringAt
 1657              	.LVL149:
 1658 0228 08BD     		pop	{r3, pc}
 1659              	.L139:
 424:main.c        ****         case D2: GUI_DispStringAt("D-2 ", 160, 240); break;
 1660              		.loc 1 424 0
 1661 022a F022     		movs	r2, #240
 1662 022c A021     		movs	r1, #160
 1663 022e 2148     		ldr	r0, .L164+28
 1664 0230 FFF7FEFF 		bl	GUI_DispStringAt
 1665              	.LVL150:
 1666 0234 08BD     		pop	{r3, pc}
 1667              	.L140:
 425:main.c        ****         case Dsharp2: GUI_DispStringAt("D#-2", 160, 240); break;
 1668              		.loc 1 425 0
 1669 0236 F022     		movs	r2, #240
 1670 0238 A021     		movs	r1, #160
 1671 023a 1F48     		ldr	r0, .L164+32
 1672 023c FFF7FEFF 		bl	GUI_DispStringAt
 1673              	.LVL151:
 1674 0240 08BD     		pop	{r3, pc}
 1675              	.L141:
 426:main.c        ****         case E2: GUI_DispStringAt("E-2 ", 160, 240); break;
 1676              		.loc 1 426 0
 1677 0242 F022     		movs	r2, #240
 1678 0244 A021     		movs	r1, #160
 1679 0246 1D48     		ldr	r0, .L164+36
 1680 0248 FFF7FEFF 		bl	GUI_DispStringAt
 1681              	.LVL152:
 1682 024c 08BD     		pop	{r3, pc}
 1683              	.L142:
ARM GAS  C:\Users\simon\AppData\Local\Temp\ccnYhktc.s 			page 38


 427:main.c        ****         case F2: GUI_DispStringAt("F-2 ", 160, 240); break;
 1684              		.loc 1 427 0
 1685 024e F022     		movs	r2, #240
 1686 0250 A021     		movs	r1, #160
 1687 0252 1B48     		ldr	r0, .L164+40
 1688 0254 FFF7FEFF 		bl	GUI_DispStringAt
 1689              	.LVL153:
 1690 0258 08BD     		pop	{r3, pc}
 1691              	.L143:
 428:main.c        ****         case Fsharp2: GUI_DispStringAt("F#-2", 160, 240); break;
 1692              		.loc 1 428 0
 1693 025a F022     		movs	r2, #240
 1694 025c A021     		movs	r1, #160
 1695 025e 1948     		ldr	r0, .L164+44
 1696 0260 FFF7FEFF 		bl	GUI_DispStringAt
 1697              	.LVL154:
 1698 0264 08BD     		pop	{r3, pc}
 1699              	.L144:
 429:main.c        ****         case G2: GUI_DispStringAt("G-2 ", 160, 240); break;
 1700              		.loc 1 429 0
 1701 0266 F022     		movs	r2, #240
 1702 0268 A021     		movs	r1, #160
 1703 026a 1748     		ldr	r0, .L164+48
 1704 026c FFF7FEFF 		bl	GUI_DispStringAt
 1705              	.LVL155:
 1706 0270 08BD     		pop	{r3, pc}
 1707              	.L145:
 430:main.c        ****         case Gsharp2: GUI_DispStringAt("G#-2", 160, 240); break;
 1708              		.loc 1 430 0
 1709 0272 F022     		movs	r2, #240
 1710 0274 A021     		movs	r1, #160
 1711 0276 1548     		ldr	r0, .L164+52
 1712 0278 FFF7FEFF 		bl	GUI_DispStringAt
 1713              	.LVL156:
 1714 027c 08BD     		pop	{r3, pc}
 1715              	.L146:
 431:main.c        ****         case A2: GUI_DispStringAt("A-2 ", 160, 240); break;
 1716              		.loc 1 431 0
 1717 027e F022     		movs	r2, #240
 1718 0280 A021     		movs	r1, #160
 1719 0282 1348     		ldr	r0, .L164+56
 1720 0284 FFF7FEFF 		bl	GUI_DispStringAt
 1721              	.LVL157:
 1722 0288 08BD     		pop	{r3, pc}
 1723              	.L147:
 432:main.c        ****         case Bb2: GUI_DispStringAt("Bb-2", 160, 240); break;
 1724              		.loc 1 432 0
 1725 028a F022     		movs	r2, #240
 1726 028c A021     		movs	r1, #160
 1727 028e 1148     		ldr	r0, .L164+60
 1728 0290 FFF7FEFF 		bl	GUI_DispStringAt
 1729              	.LVL158:
 1730 0294 08BD     		pop	{r3, pc}
 1731              	.L165:
 1732 0296 00BF     		.align	2
 1733              	.L164:
 1734 0298 00000000 		.word	GUI_Font8x16x2x2
ARM GAS  C:\Users\simon\AppData\Local\Temp\ccnYhktc.s 			page 39


 1735 029c 00000000 		.word	.LANCHOR1
 1736 02a0 00000000 		.word	.LANCHOR0
 1737 02a4 24000000 		.word	.LC4
 1738 02a8 2C000000 		.word	.LC5
 1739 02ac 34000000 		.word	.LC6
 1740 02b0 3C000000 		.word	.LC7
 1741 02b4 44000000 		.word	.LC8
 1742 02b8 4C000000 		.word	.LC9
 1743 02bc 54000000 		.word	.LC10
 1744 02c0 5C000000 		.word	.LC11
 1745 02c4 64000000 		.word	.LC12
 1746 02c8 6C000000 		.word	.LC13
 1747 02cc 74000000 		.word	.LC14
 1748 02d0 7C000000 		.word	.LC15
 1749 02d4 84000000 		.word	.LC16
 1750 02d8 8C000000 		.word	.LC17
 1751 02dc 94000000 		.word	.LC18
 1752 02e0 9C000000 		.word	.LC19
 1753 02e4 A4000000 		.word	.LC20
 1754 02e8 AC000000 		.word	.LC21
 1755 02ec B4000000 		.word	.LC22
 1756 02f0 BC000000 		.word	.LC23
 1757 02f4 C4000000 		.word	.LC24
 1758 02f8 CC000000 		.word	.LC25
 1759 02fc D4000000 		.word	.LC26
 1760 0300 DC000000 		.word	.LC27
 1761 0304 E4000000 		.word	.LC28
 1762 0308 EC000000 		.word	.LC29
 1763 030c F4000000 		.word	.LC30
 1764 0310 FC000000 		.word	.LC31
 1765 0314 04010000 		.word	.LC32
 1766 0318 08010000 		.word	.LC33
 1767              	.L148:
 433:main.c        ****         case B2: GUI_DispStringAt("B-2 ", 160, 240); break;
 1768              		.loc 1 433 0
 1769 031c F022     		movs	r2, #240
 1770 031e A021     		movs	r1, #160
 1771 0320 2B48     		ldr	r0, .L166
 1772 0322 FFF7FEFF 		bl	GUI_DispStringAt
 1773              	.LVL159:
 1774 0326 08BD     		pop	{r3, pc}
 1775              	.L149:
 434:main.c        ****         case C3: GUI_DispStringAt("C-3 ", 160, 240); break;
 1776              		.loc 1 434 0
 1777 0328 F022     		movs	r2, #240
 1778 032a A021     		movs	r1, #160
 1779 032c 2948     		ldr	r0, .L166+4
 1780 032e FFF7FEFF 		bl	GUI_DispStringAt
 1781              	.LVL160:
 1782 0332 08BD     		pop	{r3, pc}
 1783              	.L150:
 435:main.c        ****         case Csharp3: GUI_DispStringAt("C#-3", 160, 240); break;
 1784              		.loc 1 435 0
 1785 0334 F022     		movs	r2, #240
 1786 0336 A021     		movs	r1, #160
 1787 0338 2748     		ldr	r0, .L166+8
 1788 033a FFF7FEFF 		bl	GUI_DispStringAt
ARM GAS  C:\Users\simon\AppData\Local\Temp\ccnYhktc.s 			page 40


 1789              	.LVL161:
 1790 033e 08BD     		pop	{r3, pc}
 1791              	.L151:
 436:main.c        ****         case D3: GUI_DispStringAt("D-3 ", 160, 240); break;
 1792              		.loc 1 436 0
 1793 0340 F022     		movs	r2, #240
 1794 0342 A021     		movs	r1, #160
 1795 0344 2548     		ldr	r0, .L166+12
 1796 0346 FFF7FEFF 		bl	GUI_DispStringAt
 1797              	.LVL162:
 1798 034a 08BD     		pop	{r3, pc}
 1799              	.L152:
 437:main.c        ****         case Dsharp3: GUI_DispStringAt("D#-3", 160, 240); break;
 1800              		.loc 1 437 0
 1801 034c F022     		movs	r2, #240
 1802 034e A021     		movs	r1, #160
 1803 0350 2348     		ldr	r0, .L166+16
 1804 0352 FFF7FEFF 		bl	GUI_DispStringAt
 1805              	.LVL163:
 1806 0356 08BD     		pop	{r3, pc}
 1807              	.L153:
 438:main.c        ****         case E3: GUI_DispStringAt("E-3 ", 160, 240); break;
 1808              		.loc 1 438 0
 1809 0358 F022     		movs	r2, #240
 1810 035a A021     		movs	r1, #160
 1811 035c 2148     		ldr	r0, .L166+20
 1812 035e FFF7FEFF 		bl	GUI_DispStringAt
 1813              	.LVL164:
 1814 0362 08BD     		pop	{r3, pc}
 1815              	.L154:
 439:main.c        ****         case F3: GUI_DispStringAt("F-3 ", 160, 240); break;
 1816              		.loc 1 439 0
 1817 0364 F022     		movs	r2, #240
 1818 0366 A021     		movs	r1, #160
 1819 0368 1F48     		ldr	r0, .L166+24
 1820 036a FFF7FEFF 		bl	GUI_DispStringAt
 1821              	.LVL165:
 1822 036e 08BD     		pop	{r3, pc}
 1823              	.L155:
 440:main.c        ****         case Fsharp3: GUI_DispStringAt("F#-3", 160, 240); break;
 1824              		.loc 1 440 0
 1825 0370 F022     		movs	r2, #240
 1826 0372 A021     		movs	r1, #160
 1827 0374 1D48     		ldr	r0, .L166+28
 1828 0376 FFF7FEFF 		bl	GUI_DispStringAt
 1829              	.LVL166:
 1830 037a 08BD     		pop	{r3, pc}
 1831              	.L156:
 441:main.c        ****         case G3: GUI_DispStringAt("G-3 ", 160, 240); break;
 1832              		.loc 1 441 0
 1833 037c F022     		movs	r2, #240
 1834 037e A021     		movs	r1, #160
 1835 0380 1B48     		ldr	r0, .L166+32
 1836 0382 FFF7FEFF 		bl	GUI_DispStringAt
 1837              	.LVL167:
 1838 0386 08BD     		pop	{r3, pc}
 1839              	.L157:
ARM GAS  C:\Users\simon\AppData\Local\Temp\ccnYhktc.s 			page 41


 442:main.c        ****         case Gsharp3: GUI_DispStringAt("G#-3", 160, 240); break;
 1840              		.loc 1 442 0
 1841 0388 F022     		movs	r2, #240
 1842 038a A021     		movs	r1, #160
 1843 038c 1948     		ldr	r0, .L166+36
 1844 038e FFF7FEFF 		bl	GUI_DispStringAt
 1845              	.LVL168:
 1846 0392 08BD     		pop	{r3, pc}
 1847              	.L158:
 443:main.c        ****         case A3: GUI_DispStringAt("A-3 ", 160, 240); break;
 1848              		.loc 1 443 0
 1849 0394 F022     		movs	r2, #240
 1850 0396 A021     		movs	r1, #160
 1851 0398 1748     		ldr	r0, .L166+40
 1852 039a FFF7FEFF 		bl	GUI_DispStringAt
 1853              	.LVL169:
 1854 039e 08BD     		pop	{r3, pc}
 1855              	.L159:
 444:main.c        ****         case Bb3: GUI_DispStringAt("Bb-3", 160, 240); break;
 1856              		.loc 1 444 0
 1857 03a0 F022     		movs	r2, #240
 1858 03a2 A021     		movs	r1, #160
 1859 03a4 1548     		ldr	r0, .L166+44
 1860 03a6 FFF7FEFF 		bl	GUI_DispStringAt
 1861              	.LVL170:
 1862 03aa 08BD     		pop	{r3, pc}
 1863              	.L160:
 445:main.c        ****         case B3: GUI_DispStringAt("B-3 ", 160, 240); break;
 1864              		.loc 1 445 0
 1865 03ac F022     		movs	r2, #240
 1866 03ae A021     		movs	r1, #160
 1867 03b0 1348     		ldr	r0, .L166+48
 1868 03b2 FFF7FEFF 		bl	GUI_DispStringAt
 1869              	.LVL171:
 1870 03b6 08BD     		pop	{r3, pc}
 1871              	.L161:
 446:main.c        ****         case C4: GUI_DispStringAt("C-4 ", 160, 240); break;
 1872              		.loc 1 446 0
 1873 03b8 F022     		movs	r2, #240
 1874 03ba A021     		movs	r1, #160
 1875 03bc 1148     		ldr	r0, .L166+52
 1876 03be FFF7FEFF 		bl	GUI_DispStringAt
 1877              	.LVL172:
 1878 03c2 08BD     		pop	{r3, pc}
 1879              	.L162:
 447:main.c        ****         case Csharp4: GUI_DispStringAt("C#-4", 160, 240); break;
 1880              		.loc 1 447 0
 1881 03c4 F022     		movs	r2, #240
 1882 03c6 A021     		movs	r1, #160
 1883 03c8 0F48     		ldr	r0, .L166+56
 1884 03ca FFF7FEFF 		bl	GUI_DispStringAt
 1885              	.LVL173:
 1886              	.L100:
 1887 03ce 08BD     		pop	{r3, pc}
 1888              	.L167:
 1889              		.align	2
 1890              	.L166:
ARM GAS  C:\Users\simon\AppData\Local\Temp\ccnYhktc.s 			page 42


 1891 03d0 8C000000 		.word	.LC17
 1892 03d4 94000000 		.word	.LC18
 1893 03d8 9C000000 		.word	.LC19
 1894 03dc A4000000 		.word	.LC20
 1895 03e0 AC000000 		.word	.LC21
 1896 03e4 B4000000 		.word	.LC22
 1897 03e8 BC000000 		.word	.LC23
 1898 03ec C4000000 		.word	.LC24
 1899 03f0 CC000000 		.word	.LC25
 1900 03f4 D4000000 		.word	.LC26
 1901 03f8 DC000000 		.word	.LC27
 1902 03fc E4000000 		.word	.LC28
 1903 0400 EC000000 		.word	.LC29
 1904 0404 F4000000 		.word	.LC30
 1905 0408 FC000000 		.word	.LC31
 1906              		.cfi_endproc
 1907              	.LFE69:
 1908              		.size	displayNotes, .-displayNotes
 1909              		.section	.text.main,"ax",%progbits
 1910              		.align	2
 1911              		.global	main
 1912              		.thumb
 1913              		.thumb_func
 1914              		.type	main, %function
 1915              	main:
 1916              	.LFB67:
 273:main.c        ****     
 1917              		.loc 1 273 0
 1918              		.cfi_startproc
 1919              		@ Volatile: function does not return.
 1920              		@ args = 0, pretend = 0, frame = 0
 1921              		@ frame_needed = 0, uses_anonymous_args = 0
 1922 0000 08B5     		push	{r3, lr}
 1923              		.cfi_def_cfa_offset 8
 1924              		.cfi_offset 3, -8
 1925              		.cfi_offset 14, -4
 275:main.c        ****     Waveform_ISR_StartEx(Waveform_ISR); // Initialize the Waveform ISR
 1926              		.loc 1 275 0
 1927              		.syntax unified
 1928              	@ 275 "main.c" 1
 1929 0002 62B6     		CPSIE   i
 1930              	@ 0 "" 2
 276:main.c        ****     Button_Switch_StartEx(Button_ISR); // Initialize the Button ISR
 1931              		.loc 1 276 0
 1932              		.thumb
 1933              		.syntax unified
 1934 0004 0F48     		ldr	r0, .L171
 1935 0006 FFF7FEFF 		bl	Waveform_ISR_StartEx
 1936              	.LVL174:
 277:main.c        ****     Inputs_StartEx(Inputs_ISR); // Initialize the Button ISR
 1937              		.loc 1 277 0
 1938 000a 0F48     		ldr	r0, .L171+4
 1939 000c FFF7FEFF 		bl	Button_Switch_StartEx
 1940              	.LVL175:
 278:main.c        ****     NewNote_StartEx(Notes_ISR); // Initialize the Notes ISR
 1941              		.loc 1 278 0
 1942 0010 0E48     		ldr	r0, .L171+8
ARM GAS  C:\Users\simon\AppData\Local\Temp\ccnYhktc.s 			page 43


 1943 0012 FFF7FEFF 		bl	Inputs_StartEx
 1944              	.LVL176:
 279:main.c        ****     
 1945              		.loc 1 279 0
 1946 0016 0E48     		ldr	r0, .L171+12
 1947 0018 FFF7FEFF 		bl	NewNote_StartEx
 1948              	.LVL177:
 282:main.c        ****     ReadInputs_Start(); // Start the inputs timer
 1949              		.loc 1 282 0
 1950 001c FFF7FEFF 		bl	Waveform_Send_Start
 1951              	.LVL178:
 283:main.c        ****     UpdateNote_Start(); // Start the song timer
 1952              		.loc 1 283 0
 1953 0020 FFF7FEFF 		bl	ReadInputs_Start
 1954              	.LVL179:
 284:main.c        ****     Wave_Out_Start(); // Start the DAC
 1955              		.loc 1 284 0
 1956 0024 FFF7FEFF 		bl	UpdateNote_Start
 1957              	.LVL180:
 285:main.c        ****     DACBuffer_Start(); // Start the OpAmp
 1958              		.loc 1 285 0
 1959 0028 FFF7FEFF 		bl	Wave_Out_Start
 1960              	.LVL181:
 286:main.c        ****     ADC_VolumePedal_Start(); // Start the Volume ADC
 1961              		.loc 1 286 0
 1962 002c FFF7FEFF 		bl	DACBuffer_Start
 1963              	.LVL182:
 287:main.c        ****     
 1964              		.loc 1 287 0
 1965 0030 FFF7FEFF 		bl	ADC_VolumePedal_Start
 1966              	.LVL183:
 290:main.c        ****     DisplayInit();
 1967              		.loc 1 290 0
 1968 0034 FFF7FEFF 		bl	SPIM_1_Start
 1969              	.LVL184:
 291:main.c        ****     
 1970              		.loc 1 291 0
 1971 0038 FFF7FEFF 		bl	DisplayInit
 1972              	.LVL185:
 1973              	.L169:
 293:main.c        **** }
 1974              		.loc 1 293 0 discriminator 1
 1975 003c FFF7FEFF 		bl	displayNotes
 1976              	.LVL186:
 1977 0040 FCE7     		b	.L169
 1978              	.L172:
 1979 0042 00BF     		.align	2
 1980              	.L171:
 1981 0044 00000000 		.word	Waveform_ISR
 1982 0048 00000000 		.word	Button_ISR
 1983 004c 00000000 		.word	Inputs_ISR
 1984 0050 00000000 		.word	Notes_ISR
 1985              		.cfi_endproc
 1986              	.LFE67:
 1987              		.size	main, .-main
 1988              		.global	volumeControl
 1989              		.global	song_length
ARM GAS  C:\Users\simon\AppData\Local\Temp\ccnYhktc.s 			page 44


 1990              		.global	old_location
 1991              		.global	desired_note_index
 1992              		.global	note_locations
 1993              		.global	desired_notes
 1994              		.global	isChange
 1995              		.global	note
 1996              		.global	key_status
 1997              		.global	periods
 1998              		.global	waveforms
 1999              		.global	waveform_select
 2000              		.global	volume
 2001              		.global	waveVal
 2002              		.global	waveformIndex
 2003              		.data
 2004              		.align	2
 2005              		.set	.LANCHOR0,. + 0
 2006              		.type	waveform_select, %object
 2007              		.size	waveform_select, 1
 2008              	waveform_select:
 2009 0000 03       		.byte	3
 2010 0001 000000   		.space	3
 2011              		.type	waveforms, %object
 2012              		.size	waveforms, 16
 2013              	waveforms:
 2014 0004 00000000 		.word	beginning_waveform
 2015 0008 00000000 		.word	repeat_waveform
 2016 000c 00000000 		.word	end_waveform
 2017 0010 00000000 		.word	default_waveform
 2018              		.type	note, %object
 2019              		.size	note, 1
 2020              	note:
 2021 0014 0F       		.byte	15
 2022 0015 000000   		.space	3
 2023              		.type	periods, %object
 2024              		.size	periods, 56
 2025              	periods:
 2026 0018 0E10     		.short	4110
 2027 001a 270F     		.short	3879
 2028 001c 4E0E     		.short	3662
 2029 001e 7F0D     		.short	3455
 2030 0020 BE0C     		.short	3262
 2031 0022 060C     		.short	3078
 2032 0024 5A0B     		.short	2906
 2033 0026 B60A     		.short	2742
 2034 0028 1D0A     		.short	2589
 2035 002a 8C09     		.short	2444
 2036 002c 0209     		.short	2306
 2037 002e 8108     		.short	2177
 2038 0030 0608     		.short	2054
 2039 0032 9307     		.short	1939
 2040 0034 2607     		.short	1830
 2041 0036 C006     		.short	1728
 2042 0038 5F06     		.short	1631
 2043 003a 0306     		.short	1539
 2044 003c AD05     		.short	1453
 2045 003e 5B05     		.short	1371
 2046 0040 0E05     		.short	1294
ARM GAS  C:\Users\simon\AppData\Local\Temp\ccnYhktc.s 			page 45


 2047 0042 C604     		.short	1222
 2048 0044 8104     		.short	1153
 2049 0046 4004     		.short	1088
 2050 0048 0304     		.short	1027
 2051 004a CA03     		.short	970
 2052 004c 9303     		.short	915
 2053 004e 6003     		.short	864
 2054              		.type	song_length, %object
 2055              		.size	song_length, 1
 2056              	song_length:
 2057 0050 10       		.byte	16
 2058 0051 000000   		.space	3
 2059              		.type	desired_notes, %object
 2060              		.size	desired_notes, 16
 2061              	desired_notes:
 2062 0054 12       		.byte	18
 2063 0055 12       		.byte	18
 2064 0056 13       		.byte	19
 2065 0057 15       		.byte	21
 2066 0058 15       		.byte	21
 2067 0059 13       		.byte	19
 2068 005a 12       		.byte	18
 2069 005b 10       		.byte	16
 2070 005c 0E       		.byte	14
 2071 005d 0E       		.byte	14
 2072 005e 10       		.byte	16
 2073 005f 12       		.byte	18
 2074 0060 12       		.byte	18
 2075 0061 10       		.byte	16
 2076 0062 10       		.byte	16
 2077 0063 10       		.byte	16
 2078              		.type	note_locations, %object
 2079              		.size	note_locations, 16
 2080              	note_locations:
 2081 0064 1E       		.byte	30
 2082 0065 28       		.byte	40
 2083 0066 32       		.byte	50
 2084 0067 3C       		.byte	60
 2085 0068 50       		.byte	80
 2086 0069 5A       		.byte	90
 2087 006a 64       		.byte	100
 2088 006b 6E       		.byte	110
 2089 006c 82       		.byte	-126
 2090 006d 8C       		.byte	-116
 2091 006e 96       		.byte	-106
 2092 006f A0       		.byte	-96
 2093 0070 B4       		.byte	-76
 2094 0071 BE       		.byte	-66
 2095 0072 C8       		.byte	-56
 2096 0073 C8       		.byte	-56
 2097              		.section	.rodata.str1.4,"aMS",%progbits,1
 2098              		.align	2
 2099              	.LC0:
 2100 0000 4F646520 		.ascii	"Ode to Joy\000"
 2100      746F204A 
 2100      6F7900
 2101 000b 00       		.space	1
ARM GAS  C:\Users\simon\AppData\Local\Temp\ccnYhktc.s 			page 46


 2102              	.LC1:
 2103 000c 44657369 		.ascii	"Desired\000"
 2103      72656400 
 2104              	.LC2:
 2105 0014 4E6F7465 		.ascii	"Note\000"
 2105      00
 2106 0019 000000   		.space	3
 2107              	.LC3:
 2108 001c 506C6179 		.ascii	"Played\000"
 2108      656400
 2109 0023 00       		.space	1
 2110              	.LC4:
 2111 0024 42622D31 		.ascii	"Bb-1\000"
 2111      00
 2112 0029 000000   		.space	3
 2113              	.LC5:
 2114 002c 422D3120 		.ascii	"B-1 \000"
 2114      00
 2115 0031 000000   		.space	3
 2116              	.LC6:
 2117 0034 432D3220 		.ascii	"C-2 \000"
 2117      00
 2118 0039 000000   		.space	3
 2119              	.LC7:
 2120 003c 43232D32 		.ascii	"C#-2\000"
 2120      00
 2121 0041 000000   		.space	3
 2122              	.LC8:
 2123 0044 442D3220 		.ascii	"D-2 \000"
 2123      00
 2124 0049 000000   		.space	3
 2125              	.LC9:
 2126 004c 44232D32 		.ascii	"D#-2\000"
 2126      00
 2127 0051 000000   		.space	3
 2128              	.LC10:
 2129 0054 452D3220 		.ascii	"E-2 \000"
 2129      00
 2130 0059 000000   		.space	3
 2131              	.LC11:
 2132 005c 462D3220 		.ascii	"F-2 \000"
 2132      00
 2133 0061 000000   		.space	3
 2134              	.LC12:
 2135 0064 46232D32 		.ascii	"F#-2\000"
 2135      00
 2136 0069 000000   		.space	3
 2137              	.LC13:
 2138 006c 472D3220 		.ascii	"G-2 \000"
 2138      00
 2139 0071 000000   		.space	3
 2140              	.LC14:
 2141 0074 47232D32 		.ascii	"G#-2\000"
 2141      00
 2142 0079 000000   		.space	3
 2143              	.LC15:
 2144 007c 412D3220 		.ascii	"A-2 \000"
ARM GAS  C:\Users\simon\AppData\Local\Temp\ccnYhktc.s 			page 47


 2144      00
 2145 0081 000000   		.space	3
 2146              	.LC16:
 2147 0084 42622D32 		.ascii	"Bb-2\000"
 2147      00
 2148 0089 000000   		.space	3
 2149              	.LC17:
 2150 008c 422D3220 		.ascii	"B-2 \000"
 2150      00
 2151 0091 000000   		.space	3
 2152              	.LC18:
 2153 0094 432D3320 		.ascii	"C-3 \000"
 2153      00
 2154 0099 000000   		.space	3
 2155              	.LC19:
 2156 009c 43232D33 		.ascii	"C#-3\000"
 2156      00
 2157 00a1 000000   		.space	3
 2158              	.LC20:
 2159 00a4 442D3320 		.ascii	"D-3 \000"
 2159      00
 2160 00a9 000000   		.space	3
 2161              	.LC21:
 2162 00ac 44232D33 		.ascii	"D#-3\000"
 2162      00
 2163 00b1 000000   		.space	3
 2164              	.LC22:
 2165 00b4 452D3320 		.ascii	"E-3 \000"
 2165      00
 2166 00b9 000000   		.space	3
 2167              	.LC23:
 2168 00bc 462D3320 		.ascii	"F-3 \000"
 2168      00
 2169 00c1 000000   		.space	3
 2170              	.LC24:
 2171 00c4 46232D33 		.ascii	"F#-3\000"
 2171      00
 2172 00c9 000000   		.space	3
 2173              	.LC25:
 2174 00cc 472D3320 		.ascii	"G-3 \000"
 2174      00
 2175 00d1 000000   		.space	3
 2176              	.LC26:
 2177 00d4 47232D33 		.ascii	"G#-3\000"
 2177      00
 2178 00d9 000000   		.space	3
 2179              	.LC27:
 2180 00dc 412D3320 		.ascii	"A-3 \000"
 2180      00
 2181 00e1 000000   		.space	3
 2182              	.LC28:
 2183 00e4 42622D33 		.ascii	"Bb-3\000"
 2183      00
 2184 00e9 000000   		.space	3
 2185              	.LC29:
 2186 00ec 422D3320 		.ascii	"B-3 \000"
 2186      00
ARM GAS  C:\Users\simon\AppData\Local\Temp\ccnYhktc.s 			page 48


 2187 00f1 000000   		.space	3
 2188              	.LC30:
 2189 00f4 432D3420 		.ascii	"C-4 \000"
 2189      00
 2190 00f9 000000   		.space	3
 2191              	.LC31:
 2192 00fc 43232D34 		.ascii	"C#-4\000"
 2192      00
 2193 0101 000000   		.space	3
 2194              	.LC32:
 2195 0104 3D3D00   		.ascii	"==\000"
 2196 0107 00       		.space	1
 2197              	.LC33:
 2198 0108 213D00   		.ascii	"!=\000"
 2199              		.bss
 2200              		.align	2
 2201              		.set	.LANCHOR1,. + 0
 2202              		.type	waveformIndex, %object
 2203              		.size	waveformIndex, 4
 2204              	waveformIndex:
 2205 0000 00000000 		.space	4
 2206              		.type	volume, %object
 2207              		.size	volume, 1
 2208              	volume:
 2209 0004 00       		.space	1
 2210 0005 00       		.space	1
 2211              		.type	waveVal, %object
 2212              		.size	waveVal, 2
 2213              	waveVal:
 2214 0006 0000     		.space	2
 2215              		.type	key_status, %object
 2216              		.size	key_status, 2
 2217              	key_status:
 2218 0008 0000     		.space	2
 2219              		.type	volumeControl, %object
 2220              		.size	volumeControl, 2
 2221              	volumeControl:
 2222 000a 0000     		.space	2
 2223              		.type	isChange, %object
 2224              		.size	isChange, 1
 2225              	isChange:
 2226 000c 00       		.space	1
 2227              		.type	desired_note_index, %object
 2228              		.size	desired_note_index, 1
 2229              	desired_note_index:
 2230 000d 00       		.space	1
 2231              		.type	old_location, %object
 2232              		.size	old_location, 1
 2233              	old_location:
 2234 000e 00       		.space	1
 2235              		.text
 2236              	.Letext0:
 2237              		.file 2 "c:\\program files (x86)\\cypress\\psoc creator\\4.4\\psoc creator\\import\\gnu\\arm\\5.4.
 2238              		.file 3 "c:\\program files (x86)\\cypress\\psoc creator\\4.4\\psoc creator\\import\\gnu\\arm\\5.4.
 2239              		.file 4 "Generated_Source\\PSoC5/cytypes.h"
 2240              		.file 5 "..\\..\\emWinGraphics_v5_46\\Code\\Include\\PSoC4_5/GUI_Type.h"
 2241              		.file 6 "waveforms.h"
ARM GAS  C:\Users\simon\AppData\Local\Temp\ccnYhktc.s 			page 49


 2242              		.file 7 "Generated_Source\\PSoC5/core_cm3.h"
 2243              		.file 8 "..\\..\\emWinGraphics_v5_46\\Code\\Include\\PSoC4_5/GUI.h"
 2244              		.file 9 "Generated_Source\\PSoC5/Fs.h"
 2245              		.file 10 "Generated_Source\\PSoC5/Wave_Out.h"
 2246              		.file 11 "Generated_Source\\PSoC5/Waveform_Send.h"
 2247              		.file 12 "Generated_Source\\PSoC5/KeyNote_High.h"
 2248              		.file 13 "Generated_Source\\PSoC5/KeyNote_Low.h"
 2249              		.file 14 "Generated_Source\\PSoC5/ADC_VolumePedal.h"
 2250              		.file 15 "Generated_Source\\PSoC5/ReadInputs.h"
 2251              		.file 16 "Generated_Source\\PSoC5/UpdateNote.h"
 2252              		.file 17 "Generated_Source\\PSoC5/Control_Reg_1.h"
 2253              		.file 18 "Generated_Source\\PSoC5/Control_Reg_2.h"
 2254              		.file 19 "Generated_Source\\PSoC5/Waveform_ISR.h"
 2255              		.file 20 "Generated_Source\\PSoC5/Button_Switch.h"
 2256              		.file 21 "Generated_Source\\PSoC5/Inputs.h"
 2257              		.file 22 "Generated_Source\\PSoC5/NewNote.h"
 2258              		.file 23 "Generated_Source\\PSoC5/DACBuffer.h"
 2259              		.file 24 "Generated_Source\\PSoC5/SPIM_1.h"