ARM GAS  C:\Users\simon\AppData\Local\Temp\ccDldw3U.s 			page 1


   1              		.syntax unified
   2              		.cpu cortex-m3
   3              		.fpu softvfp
   4              		.eabi_attribute 20, 1
   5              		.eabi_attribute 21, 1
   6              		.eabi_attribute 23, 3
   7              		.eabi_attribute 24, 1
   8              		.eabi_attribute 25, 1
   9              		.eabi_attribute 26, 1
  10              		.eabi_attribute 30, 1
  11              		.eabi_attribute 34, 1
  12              		.eabi_attribute 18, 4
  13              		.thumb
  14              		.syntax unified
  15              		.file	"tft.c"
  16              		.text
  17              	.Ltext0:
  18              		.cfi_sections	.debug_frame
  19              		.section	.text.write8_a0,"ax",%progbits
  20              		.align	2
  21              		.global	write8_a0
  22              		.thumb
  23              		.thumb_func
  24              		.type	write8_a0, %function
  25              	write8_a0:
  26              	.LFB63:
  27              		.file 1 "tft.c"
   1:tft.c         **** /* ========================================
   2:tft.c         ****  *
   3:tft.c         ****  * Copyright YOUR COMPANY, THE YEAR
   4:tft.c         ****  * All Rights Reserved
   5:tft.c         ****  * UNPUBLISHED, LICENSED SOFTWARE.
   6:tft.c         ****  *
   7:tft.c         ****  * CONFIDENTIAL AND PROPRIETARY INFORMATION
   8:tft.c         ****  * WHICH IS THE PROPERTY OF your company.
   9:tft.c         ****  *
  10:tft.c         ****  * ========================================
  11:tft.c         **** */
  12:tft.c         **** #include "tft.h"
  13:tft.c         **** 
  14:tft.c         **** //==============================================================
  15:tft.c         **** // write8_a0()
  16:tft.c         **** // writes an 8-bit value to the TFT with the D/C line low
  17:tft.c         **** //
  18:tft.c         **** // Arguments:
  19:tft.c         **** //      data - 8-bit value
  20:tft.c         **** //==============================================================
  21:tft.c         **** void write8_a0(uint8 data)
  22:tft.c         **** {
  28              		.loc 1 22 0
  29              		.cfi_startproc
  30              		@ args = 0, pretend = 0, frame = 0
  31              		@ frame_needed = 0, uses_anonymous_args = 0
  32              	.LVL0:
  33 0000 10B5     		push	{r4, lr}
  34              		.cfi_def_cfa_offset 8
  35              		.cfi_offset 4, -8
ARM GAS  C:\Users\simon\AppData\Local\Temp\ccDldw3U.s 			page 2


  36              		.cfi_offset 14, -4
  37 0002 0446     		mov	r4, r0
  23:tft.c         **** 	DC_Write(0x00); 						        // set DC line low
  38              		.loc 1 23 0
  39 0004 0020     		movs	r0, #0
  40              	.LVL1:
  41 0006 FFF7FEFF 		bl	DC_Write
  42              	.LVL2:
  24:tft.c         ****     SPIM_1_WriteTxData(data);         		        // send data to transmit buffer
  43              		.loc 1 24 0
  44 000a 2046     		mov	r0, r4
  45 000c FFF7FEFF 		bl	SPIM_1_WriteTxData
  46              	.LVL3:
  47              	.L2:
  25:tft.c         ****     while (!(SPIM_1_ReadTxStatus() & 0x01)){};	    // wait for data to be sent
  48              		.loc 1 25 0 discriminator 1
  49 0010 FFF7FEFF 		bl	SPIM_1_ReadTxStatus
  50              	.LVL4:
  51 0014 10F0010F 		tst	r0, #1
  52 0018 FAD0     		beq	.L2
  26:tft.c         **** }
  53              		.loc 1 26 0
  54 001a 10BD     		pop	{r4, pc}
  55              		.cfi_endproc
  56              	.LFE63:
  57              		.size	write8_a0, .-write8_a0
  58              		.section	.text.write8_a1,"ax",%progbits
  59              		.align	2
  60              		.global	write8_a1
  61              		.thumb
  62              		.thumb_func
  63              		.type	write8_a1, %function
  64              	write8_a1:
  65              	.LFB64:
  27:tft.c         **** 
  28:tft.c         **** //==============================================================
  29:tft.c         **** // write8_a1()
  30:tft.c         **** // writes an 8-bit value to the TFT with the D/C line high
  31:tft.c         **** //
  32:tft.c         **** // Arguments:
  33:tft.c         **** //      data - 8-bit value
  34:tft.c         **** //==============================================================
  35:tft.c         **** void write8_a1(uint8 data)
  36:tft.c         **** {
  66              		.loc 1 36 0
  67              		.cfi_startproc
  68              		@ args = 0, pretend = 0, frame = 0
  69              		@ frame_needed = 0, uses_anonymous_args = 0
  70              	.LVL5:
  71 0000 10B5     		push	{r4, lr}
  72              		.cfi_def_cfa_offset 8
  73              		.cfi_offset 4, -8
  74              		.cfi_offset 14, -4
  75 0002 0446     		mov	r4, r0
  37:tft.c         **** 	DC_Write(0x01); 						        // set DC line high
  76              		.loc 1 37 0
  77 0004 0120     		movs	r0, #1
ARM GAS  C:\Users\simon\AppData\Local\Temp\ccDldw3U.s 			page 3


  78              	.LVL6:
  79 0006 FFF7FEFF 		bl	DC_Write
  80              	.LVL7:
  38:tft.c         ****     SPIM_1_WriteTxData(data);                       // send data to transmit buffer
  81              		.loc 1 38 0
  82 000a 2046     		mov	r0, r4
  83 000c FFF7FEFF 		bl	SPIM_1_WriteTxData
  84              	.LVL8:
  85              	.L5:
  39:tft.c         ****     while (!(SPIM_1_ReadTxStatus() & 0x01)){};	    // wait for data to be sent
  86              		.loc 1 39 0 discriminator 1
  87 0010 FFF7FEFF 		bl	SPIM_1_ReadTxStatus
  88              	.LVL9:
  89 0014 10F0010F 		tst	r0, #1
  90 0018 FAD0     		beq	.L5
  40:tft.c         **** }
  91              		.loc 1 40 0
  92 001a 10BD     		pop	{r4, pc}
  93              		.cfi_endproc
  94              	.LFE64:
  95              		.size	write8_a1, .-write8_a1
  96              		.section	.text.writeM8_a1,"ax",%progbits
  97              		.align	2
  98              		.global	writeM8_a1
  99              		.thumb
 100              		.thumb_func
 101              		.type	writeM8_a1, %function
 102              	writeM8_a1:
 103              	.LFB65:
  41:tft.c         **** 
  42:tft.c         **** //==============================================================
  43:tft.c         **** // writeM8_a1()
  44:tft.c         **** // writes multiple bytes to the TFT with the D/C line high
  45:tft.c         **** //
  46:tft.c         **** // Arguments:
  47:tft.c         **** //      pData - pointer to an array of 8-bit data values
  48:tft.c         **** //      N - the size of the array *pData
  49:tft.c         **** //==============================================================
  50:tft.c         **** void writeM8_a1(uint8 *pData, int N)
  51:tft.c         **** {
 104              		.loc 1 51 0
 105              		.cfi_startproc
 106              		@ args = 0, pretend = 0, frame = 0
 107              		@ frame_needed = 0, uses_anonymous_args = 0
 108              	.LVL10:
 109 0000 70B5     		push	{r4, r5, r6, lr}
 110              		.cfi_def_cfa_offset 16
 111              		.cfi_offset 4, -16
 112              		.cfi_offset 5, -12
 113              		.cfi_offset 6, -8
 114              		.cfi_offset 14, -4
 115 0002 0646     		mov	r6, r0
 116 0004 0D46     		mov	r5, r1
  52:tft.c         **** 	DC_Write(0x01); 						        // set DC line high
 117              		.loc 1 52 0
 118 0006 0120     		movs	r0, #1
 119              	.LVL11:
ARM GAS  C:\Users\simon\AppData\Local\Temp\ccDldw3U.s 			page 4


 120 0008 FFF7FEFF 		bl	DC_Write
 121              	.LVL12:
  53:tft.c         ****     int i;
  54:tft.c         ****     for (i=0; i<N; i++)
 122              		.loc 1 54 0
 123 000c 0024     		movs	r4, #0
 124 000e 08E0     		b	.L8
 125              	.LVL13:
 126              	.L10:
  55:tft.c         ****     {
  56:tft.c         ****         SPIM_1_WriteTxData(pData[i]);               // send data to transmit buffer
 127              		.loc 1 56 0
 128 0010 305D     		ldrb	r0, [r6, r4]	@ zero_extendqisi2
 129 0012 FFF7FEFF 		bl	SPIM_1_WriteTxData
 130              	.LVL14:
 131              	.L9:
  57:tft.c         ****         while (!(SPIM_1_ReadTxStatus() & 0x01)){};  // wait for data to be sent
 132              		.loc 1 57 0 discriminator 1
 133 0016 FFF7FEFF 		bl	SPIM_1_ReadTxStatus
 134              	.LVL15:
 135 001a 10F0010F 		tst	r0, #1
 136 001e FAD0     		beq	.L9
  54:tft.c         ****     {
 137              		.loc 1 54 0 discriminator 2
 138 0020 0134     		adds	r4, r4, #1
 139              	.LVL16:
 140              	.L8:
  54:tft.c         ****     {
 141              		.loc 1 54 0 is_stmt 0 discriminator 1
 142 0022 AC42     		cmp	r4, r5
 143 0024 F4DB     		blt	.L10
  58:tft.c         ****     }
  59:tft.c         **** }
 144              		.loc 1 59 0 is_stmt 1
 145 0026 70BD     		pop	{r4, r5, r6, pc}
 146              		.cfi_endproc
 147              	.LFE65:
 148              		.size	writeM8_a1, .-writeM8_a1
 149              		.section	.text.read8_a1,"ax",%progbits
 150              		.align	2
 151              		.global	read8_a1
 152              		.thumb
 153              		.thumb_func
 154              		.type	read8_a1, %function
 155              	read8_a1:
 156              	.LFB66:
  60:tft.c         **** 
  61:tft.c         **** //==============================================================
  62:tft.c         **** // read8_a1()
  63:tft.c         **** // reads an 8-bit value to the TFT with the D/C line high
  64:tft.c         **** //==============================================================
  65:tft.c         **** uint8 read8_a1(void)
  66:tft.c         **** {
 157              		.loc 1 66 0
 158              		.cfi_startproc
 159              		@ Volatile: function does not return.
 160              		@ args = 0, pretend = 0, frame = 0
ARM GAS  C:\Users\simon\AppData\Local\Temp\ccDldw3U.s 			page 5


 161              		@ frame_needed = 0, uses_anonymous_args = 0
 162              		@ link register save eliminated.
 163              	.L13:
 164 0000 FEE7     		b	.L13
 165              		.cfi_endproc
 166              	.LFE66:
 167              		.size	read8_a1, .-read8_a1
 168 0002 00BF     		.section	.text.readM8_a1,"ax",%progbits
 169              		.align	2
 170              		.global	readM8_a1
 171              		.thumb
 172              		.thumb_func
 173              		.type	readM8_a1, %function
 174              	readM8_a1:
 175              	.LFB67:
  67:tft.c         **** 	for (;;) {}                                     // read function not implemented
  68:tft.c         **** };
  69:tft.c         **** 
  70:tft.c         **** //==============================================================
  71:tft.c         **** // readM8_a1()
  72:tft.c         **** // reads multple 8-bit values from the TFT with the D/C line high
  73:tft.c         **** //
  74:tft.c         **** // Arguments:
  75:tft.c         **** //      pData - an array where the read values we be stored
  76:tft.c         **** //      N - the number of values that will be read (also size of 
  77:tft.c         **** //          the array pData)
  78:tft.c         **** //==============================================================
  79:tft.c         **** void readM8_a1(uint8 *pData, int N)
  80:tft.c         **** {
 176              		.loc 1 80 0
 177              		.cfi_startproc
 178              		@ Volatile: function does not return.
 179              		@ args = 0, pretend = 0, frame = 0
 180              		@ frame_needed = 0, uses_anonymous_args = 0
 181              		@ link register save eliminated.
 182              	.LVL17:
 183              	.L15:
 184 0000 FEE7     		b	.L15
 185              		.cfi_endproc
 186              	.LFE67:
 187              		.size	readM8_a1, .-readM8_a1
 188 0002 00BF     		.section	.text.tftStart,"ax",%progbits
 189              		.align	2
 190              		.global	tftStart
 191              		.thumb
 192              		.thumb_func
 193              		.type	tftStart, %function
 194              	tftStart:
 195              	.LFB68:
  81:tft.c         **** 	for (;;) {}                                     // read function not implemented
  82:tft.c         **** }
  83:tft.c         **** 
  84:tft.c         **** //==============================================================
  85:tft.c         **** // tftStart()
  86:tft.c         **** // this function must be called to initializes the TFT
  87:tft.c         **** //==============================================================
  88:tft.c         **** void tftStart(void)
ARM GAS  C:\Users\simon\AppData\Local\Temp\ccDldw3U.s 			page 6


  89:tft.c         **** {
 196              		.loc 1 89 0
 197              		.cfi_startproc
 198              		@ args = 0, pretend = 0, frame = 0
 199              		@ frame_needed = 0, uses_anonymous_args = 0
 200              		.loc 1 89 0
 201 0000 08B5     		push	{r3, lr}
 202              		.cfi_def_cfa_offset 8
 203              		.cfi_offset 3, -8
 204              		.cfi_offset 14, -4
  90:tft.c         ****     write8_a0(0x01);         			// send Software Reset Command (must wait at least 5ms after comman
 205              		.loc 1 90 0
 206 0002 0120     		movs	r0, #1
 207 0004 FFF7FEFF 		bl	write8_a0
 208              	.LVL18:
  91:tft.c         ****     CyDelay(10);
 209              		.loc 1 91 0
 210 0008 0A20     		movs	r0, #10
 211 000a FFF7FEFF 		bl	CyDelay
 212              	.LVL19:
  92:tft.c         ****     write8_a0(0x36);         			// send Memory Access Control command
 213              		.loc 1 92 0
 214 000e 3620     		movs	r0, #54
 215 0010 FFF7FEFF 		bl	write8_a0
 216              	.LVL20:
  93:tft.c         **** 	write8_a1(0x88);
 217              		.loc 1 93 0
 218 0014 8820     		movs	r0, #136
 219 0016 FFF7FEFF 		bl	write8_a1
 220              	.LVL21:
  94:tft.c         ****     write8_a0(0x3A);         			// send COLMOD: Pixel Format Set command
 221              		.loc 1 94 0
 222 001a 3A20     		movs	r0, #58
 223 001c FFF7FEFF 		bl	write8_a0
 224              	.LVL22:
  95:tft.c         ****     write8_a1(0x55);
 225              		.loc 1 95 0
 226 0020 5520     		movs	r0, #85
 227 0022 FFF7FEFF 		bl	write8_a1
 228              	.LVL23:
  96:tft.c         ****     write8_a0(0x11);         			// send Sleep Out command
 229              		.loc 1 96 0
 230 0026 1120     		movs	r0, #17
 231 0028 FFF7FEFF 		bl	write8_a0
 232              	.LVL24:
  97:tft.c         ****     write8_a0(0x29);         			// send Display ON command
 233              		.loc 1 97 0
 234 002c 2920     		movs	r0, #41
 235 002e FFF7FEFF 		bl	write8_a0
 236              	.LVL25:
  98:tft.c         ****     CyDelay(250);            			// delay to allow all changes to take effect	
 237              		.loc 1 98 0
 238 0032 FA20     		movs	r0, #250
 239 0034 FFF7FEFF 		bl	CyDelay
 240              	.LVL26:
 241 0038 08BD     		pop	{r3, pc}
 242              		.cfi_endproc
ARM GAS  C:\Users\simon\AppData\Local\Temp\ccDldw3U.s 			page 7


 243              	.LFE68:
 244              		.size	tftStart, .-tftStart
 245 003a 00BF     		.text
 246              	.Letext0:
 247              		.file 2 "c:\\program files (x86)\\cypress\\psoc creator\\4.4\\psoc creator\\import\\gnu\\arm\\5.4.
 248              		.file 3 "c:\\program files (x86)\\cypress\\psoc creator\\4.4\\psoc creator\\import\\gnu\\arm\\5.4.
 249              		.file 4 "Generated_Source\\PSoC5/cytypes.h"
 250              		.file 5 "Generated_Source\\PSoC5/DC.h"
 251              		.file 6 "Generated_Source\\PSoC5/SPIM_1.h"
 252              		.file 7 "Generated_Source\\PSoC5/CyLib.h"
 253              		.file 8 "Generated_Source\\PSoC5/core_cm3.h"