ARM GAS  C:\Users\simon\AppData\Local\Temp\ccsdkusR.s 			page 1


   1              		.syntax unified
   2              		.cpu cortex-m3
   3              		.fpu softvfp
   4              		.eabi_attribute 20, 1
   5              		.eabi_attribute 21, 1
   6              		.eabi_attribute 23, 3
   7              		.eabi_attribute 24, 1
   8              		.eabi_attribute 25, 1
   9              		.eabi_attribute 26, 1
  10              		.eabi_attribute 30, 1
  11              		.eabi_attribute 34, 1
  12              		.eabi_attribute 18, 4
  13              		.thumb
  14              		.syntax unified
  15              		.file	"main.c"
  16              		.text
  17              	.Ltext0:
  18              		.cfi_sections	.debug_frame
  19              		.section	.text.Waveform_ISR,"ax",%progbits
  20              		.align	2
  21              		.global	Waveform_ISR
  22              		.thumb
  23              		.thumb_func
  24              		.type	Waveform_ISR, %function
  25              	Waveform_ISR:
  26              	.LFB63:
  27              		.file 1 "main.c"
   1:main.c        **** /* ========================================
   2:main.c        ****  *
   3:main.c        ****  * Copyright YOUR COMPANY, THE YEAR
   4:main.c        ****  * All Rights Reserved
   5:main.c        ****  * UNPUBLISHED, LICENSED SOFTWARE.
   6:main.c        ****  *
   7:main.c        ****  * CONFIDENTIAL AND PROPRIETARY INFORMATION
   8:main.c        ****  * WHICH IS THE PROPERTY OF your company.
   9:main.c        ****  *
  10:main.c        ****  * ========================================
  11:main.c        **** */
  12:main.c        **** #include <project.h>
  13:main.c        **** #include "waveforms.h"
  14:main.c        **** 
  15:main.c        **** volatile uint32_t waveformIndex = 0;
  16:main.c        **** volatile uint16_t waveVal = 0;
  17:main.c        **** volatile uint8_t volume = 10;
  18:main.c        **** volatile enum Waveform waveform_select = Beginning;
  19:main.c        **** uint16_t* waveforms[4] = {beginning_waveform, repeat_waveform, end_waveform, default_waveform};
  20:main.c        **** 
  21:main.c        **** CY_ISR(Waveform_ISR)
  22:main.c        **** {
  28              		.loc 1 22 0
  29              		.cfi_startproc
  30              		@ args = 0, pretend = 0, frame = 0
  31              		@ frame_needed = 0, uses_anonymous_args = 0
  32 0000 10B5     		push	{r4, lr}
  33              		.cfi_def_cfa_offset 8
  34              		.cfi_offset 4, -8
  35              		.cfi_offset 14, -4
ARM GAS  C:\Users\simon\AppData\Local\Temp\ccsdkusR.s 			page 2


  23:main.c        ****     // Toggle the digital pin
  24:main.c        ****     Fs_Write(~Fs_Read());
  36              		.loc 1 24 0
  37 0002 FFF7FEFF 		bl	Fs_Read
  38              	.LVL0:
  39 0006 C043     		mvns	r0, r0
  40 0008 C0B2     		uxtb	r0, r0
  41 000a FFF7FEFF 		bl	Fs_Write
  42              	.LVL1:
  25:main.c        ****     
  26:main.c        ****     // Update DAC output with the next value from the waveform
  27:main.c        ****     waveVal = (waveforms[waveform_select][waveformIndex]*volume) + 2048;
  43              		.loc 1 27 0
  44 000e 174C     		ldr	r4, .L5
  45 0010 2378     		ldrb	r3, [r4]	@ zero_extendqisi2
  46 0012 174A     		ldr	r2, .L5+4
  47 0014 52F82330 		ldr	r3, [r2, r3, lsl #2]
  48 0018 6168     		ldr	r1, [r4, #4]
  49 001a 33F81110 		ldrh	r1, [r3, r1, lsl #1]
  50 001e 137C     		ldrb	r3, [r2, #16]	@ zero_extendqisi2
  51 0020 03FB01F3 		mul	r3, r3, r1
  52 0024 03F50063 		add	r3, r3, #2048
  53 0028 9BB2     		uxth	r3, r3
  54 002a 2381     		strh	r3, [r4, #8]	@ movhi
  28:main.c        ****     Wave_Out_SetValue(waveVal);
  55              		.loc 1 28 0
  56 002c 2089     		ldrh	r0, [r4, #8]
  57 002e 80B2     		uxth	r0, r0
  58 0030 FFF7FEFF 		bl	Wave_Out_SetValue
  59              	.LVL2:
  29:main.c        ****     // Increment waveform index for the next interrupt
  30:main.c        ****     waveformIndex++;
  60              		.loc 1 30 0
  61 0034 6368     		ldr	r3, [r4, #4]
  62 0036 0133     		adds	r3, r3, #1
  63 0038 6360     		str	r3, [r4, #4]
  31:main.c        ****     
  32:main.c        ****     // Update the waveform counter
  33:main.c        ****     if (waveformIndex >= waveform_sizes[waveform_select]) {
  64              		.loc 1 33 0
  65 003a 2278     		ldrb	r2, [r4]	@ zero_extendqisi2
  66 003c 0D4B     		ldr	r3, .L5+8
  67 003e 53F82220 		ldr	r2, [r3, r2, lsl #2]
  68 0042 6368     		ldr	r3, [r4, #4]
  69 0044 9A42     		cmp	r2, r3
  70 0046 0DD8     		bhi	.L2
  34:main.c        ****         // Reset the counter
  35:main.c        ****         waveformIndex = 0;
  71              		.loc 1 35 0
  72 0048 0022     		movs	r2, #0
  73 004a 6260     		str	r2, [r4, #4]
  36:main.c        ****         waveform_select = (waveform_select + 1)%4;
  74              		.loc 1 36 0
  75 004c 2378     		ldrb	r3, [r4]	@ zero_extendqisi2
  76 004e 0133     		adds	r3, r3, #1
  77 0050 094A     		ldr	r2, .L5+12
  78 0052 1340     		ands	r3, r3, r2
ARM GAS  C:\Users\simon\AppData\Local\Temp\ccsdkusR.s 			page 3


  79 0054 03D5     		bpl	.L3
  80 0056 013B     		subs	r3, r3, #1
  81 0058 63F00303 		orn	r3, r3, #3
  82 005c 0133     		adds	r3, r3, #1
  83              	.L3:
  84 005e DBB2     		uxtb	r3, r3
  85 0060 024A     		ldr	r2, .L5
  86 0062 1370     		strb	r3, [r2]
  87              	.L2:
  37:main.c        ****     }
  38:main.c        ****     
  39:main.c        ****     // Resets the TC flag
  40:main.c        ****     Waveform_Send_ReadStatusRegister();
  88              		.loc 1 40 0
  89 0064 FFF7FEFF 		bl	Waveform_Send_ReadStatusRegister
  90              	.LVL3:
  91 0068 10BD     		pop	{r4, pc}
  92              	.L6:
  93 006a 00BF     		.align	2
  94              	.L5:
  95 006c 00000000 		.word	.LANCHOR0
  96 0070 00000000 		.word	.LANCHOR1
  97 0074 00000000 		.word	waveform_sizes
  98 0078 03000080 		.word	-2147483645
  99              		.cfi_endproc
 100              	.LFE63:
 101              		.size	Waveform_ISR, .-Waveform_ISR
 102              		.section	.text.main,"ax",%progbits
 103              		.align	2
 104              		.global	main
 105              		.thumb
 106              		.thumb_func
 107              		.type	main, %function
 108              	main:
 109              	.LFB64:
  41:main.c        **** }
  42:main.c        **** 
  43:main.c        **** 
  44:main.c        **** int main(void)
  45:main.c        **** {
 110              		.loc 1 45 0
 111              		.cfi_startproc
 112              		@ args = 0, pretend = 0, frame = 56
 113              		@ frame_needed = 0, uses_anonymous_args = 0
 114 0000 F0B5     		push	{r4, r5, r6, r7, lr}
 115              		.cfi_def_cfa_offset 20
 116              		.cfi_offset 4, -20
 117              		.cfi_offset 5, -16
 118              		.cfi_offset 6, -12
 119              		.cfi_offset 7, -8
 120              		.cfi_offset 14, -4
 121 0002 8FB0     		sub	sp, sp, #60
 122              		.cfi_def_cfa_offset 80
  46:main.c        ****     
  47:main.c        ****     CyGlobalIntEnable; // Enable global interrupts
 123              		.loc 1 47 0
 124              		.syntax unified
ARM GAS  C:\Users\simon\AppData\Local\Temp\ccsdkusR.s 			page 4


 125              	@ 47 "main.c" 1
 126 0004 62B6     		CPSIE   i
 127              	@ 0 "" 2
  48:main.c        ****     
  49:main.c        ****     // Different sampling periods of different notes
  50:main.c        ****     uint16 periods[28] = {4110, 3879, 3662, 3455, 3262, 3078, 2906, 2742, 2589, 2444, 2306, 2177, 2
 128              		.loc 1 50 0
 129              		.thumb
 130              		.syntax unified
 131 0006 154C     		ldr	r4, .L13
 132 0008 6D46     		mov	r5, sp
 133 000a 04F13007 		add	r7, r4, #48
 134              	.L8:
 135 000e 2E46     		mov	r6, r5
 136 0010 2068     		ldr	r0, [r4]	@ unaligned
 137 0012 6168     		ldr	r1, [r4, #4]	@ unaligned
 138 0014 A268     		ldr	r2, [r4, #8]	@ unaligned
 139 0016 E368     		ldr	r3, [r4, #12]	@ unaligned
 140 0018 0FC6     		stmia	r6!, {r0, r1, r2, r3}
 141 001a 1034     		adds	r4, r4, #16
 142 001c 3546     		mov	r5, r6
 143 001e BC42     		cmp	r4, r7
 144 0020 F5D1     		bne	.L8
 145 0022 2068     		ldr	r0, [r4]	@ unaligned
 146 0024 6168     		ldr	r1, [r4, #4]	@ unaligned
 147 0026 03C5     		stmia	r5!, {r0, r1}
  51:main.c        ****     
  52:main.c        ****     // Initialize components
  53:main.c        ****     Waveform_ISR_StartEx(Waveform_ISR); // Initialize the ISR
 148              		.loc 1 53 0
 149 0028 0D48     		ldr	r0, .L13+4
 150 002a FFF7FEFF 		bl	Waveform_ISR_StartEx
 151              	.LVL4:
  54:main.c        ****     Waveform_Send_Start(); // Start the timer
 152              		.loc 1 54 0
 153 002e FFF7FEFF 		bl	Waveform_Send_Start
 154              	.LVL5:
  55:main.c        ****     Wave_Out_Start(); // Start the DAC
 155              		.loc 1 55 0
 156 0032 FFF7FEFF 		bl	Wave_Out_Start
 157              	.LVL6:
  56:main.c        ****     DACBuffer_Start(); // Start the OpAmp
 158              		.loc 1 56 0
 159 0036 FFF7FEFF 		bl	DACBuffer_Start
 160              	.LVL7:
 161              	.L11:
 162              	.LBB2:
  57:main.c        ****     
  58:main.c        ****     
  59:main.c        ****     
  60:main.c        ****     for(;;)
  61:main.c        ****     {
  62:main.c        ****         for (int i = 0; i < 28; i++){
 163              		.loc 1 62 0
 164 003a 0024     		movs	r4, #0
 165 003c 0BE0     		b	.L9
 166              	.LVL8:
ARM GAS  C:\Users\simon\AppData\Local\Temp\ccsdkusR.s 			page 5


 167              	.L10:
  63:main.c        ****             Waveform_Send_WritePeriod(periods[i]);
 168              		.loc 1 63 0 discriminator 3
 169 003e 0EAB     		add	r3, sp, #56
 170 0040 03EB4403 		add	r3, r3, r4, lsl #1
 171 0044 33F8380C 		ldrh	r0, [r3, #-56]
 172 0048 FFF7FEFF 		bl	Waveform_Send_WritePeriod
 173              	.LVL9:
  64:main.c        ****             CyDelay(1000);
 174              		.loc 1 64 0 discriminator 3
 175 004c 4FF47A70 		mov	r0, #1000
 176 0050 FFF7FEFF 		bl	CyDelay
 177              	.LVL10:
  62:main.c        ****             Waveform_Send_WritePeriod(periods[i]);
 178              		.loc 1 62 0 discriminator 3
 179 0054 0134     		adds	r4, r4, #1
 180              	.LVL11:
 181              	.L9:
  62:main.c        ****             Waveform_Send_WritePeriod(periods[i]);
 182              		.loc 1 62 0 is_stmt 0 discriminator 1
 183 0056 1B2C     		cmp	r4, #27
 184 0058 F1DD     		ble	.L10
 185 005a EEE7     		b	.L11
 186              	.L14:
 187              		.align	2
 188              	.L13:
 189 005c 00000000 		.word	.LANCHOR2
 190 0060 00000000 		.word	Waveform_ISR
 191              	.LBE2:
 192              		.cfi_endproc
 193              	.LFE64:
 194              		.size	main, .-main
 195              		.global	waveforms
 196              		.global	waveform_select
 197              		.global	volume
 198              		.global	waveVal
 199              		.global	waveformIndex
 200              		.section	.rodata
 201              		.align	2
 202              		.set	.LANCHOR2,. + 0
 203              	.LC0:
 204 0000 0E10     		.short	4110
 205 0002 270F     		.short	3879
 206 0004 4E0E     		.short	3662
 207 0006 7F0D     		.short	3455
 208 0008 BE0C     		.short	3262
 209 000a 060C     		.short	3078
 210 000c 5A0B     		.short	2906
 211 000e B60A     		.short	2742
 212 0010 1D0A     		.short	2589
 213 0012 8C09     		.short	2444
 214 0014 0209     		.short	2306
 215 0016 8108     		.short	2177
 216 0018 0608     		.short	2054
 217 001a 9307     		.short	1939
 218 001c 2607     		.short	1830
 219 001e C006     		.short	1728
ARM GAS  C:\Users\simon\AppData\Local\Temp\ccsdkusR.s 			page 6


 220 0020 5F06     		.short	1631
 221 0022 0306     		.short	1539
 222 0024 AD05     		.short	1453
 223 0026 5B05     		.short	1371
 224 0028 0E05     		.short	1294
 225 002a C604     		.short	1222
 226 002c 8104     		.short	1153
 227 002e 4004     		.short	1088
 228 0030 0304     		.short	1027
 229 0032 CA03     		.short	970
 230 0034 9303     		.short	915
 231 0036 6003     		.short	864
 232              		.data
 233              		.align	2
 234              		.set	.LANCHOR1,. + 0
 235              		.type	waveforms, %object
 236              		.size	waveforms, 16
 237              	waveforms:
 238 0000 00000000 		.word	beginning_waveform
 239 0004 00000000 		.word	repeat_waveform
 240 0008 00000000 		.word	end_waveform
 241 000c 00000000 		.word	default_waveform
 242              		.type	volume, %object
 243              		.size	volume, 1
 244              	volume:
 245 0010 0A       		.byte	10
 246              		.bss
 247              		.align	2
 248              		.set	.LANCHOR0,. + 0
 249              		.type	waveform_select, %object
 250              		.size	waveform_select, 1
 251              	waveform_select:
 252 0000 00       		.space	1
 253 0001 000000   		.space	3
 254              		.type	waveformIndex, %object
 255              		.size	waveformIndex, 4
 256              	waveformIndex:
 257 0004 00000000 		.space	4
 258              		.type	waveVal, %object
 259              		.size	waveVal, 2
 260              	waveVal:
 261 0008 0000     		.space	2
 262              		.text
 263              	.Letext0:
 264              		.file 2 "c:\\program files (x86)\\cypress\\psoc creator\\4.4\\psoc creator\\import\\gnu\\arm\\5.4.
 265              		.file 3 "c:\\program files (x86)\\cypress\\psoc creator\\4.4\\psoc creator\\import\\gnu\\arm\\5.4.
 266              		.file 4 "Generated_Source\\PSoC5/cytypes.h"
 267              		.file 5 "Generated_Source\\PSoC5/core_cm3.h"
 268              		.file 6 "waveforms.h"
 269              		.file 7 "Generated_Source\\PSoC5/Fs.h"
 270              		.file 8 "Generated_Source\\PSoC5/Wave_Out.h"
 271              		.file 9 "Generated_Source\\PSoC5/Waveform_Send.h"
 272              		.file 10 "Generated_Source\\PSoC5/CyLib.h"
 273              		.file 11 "Generated_Source\\PSoC5/Waveform_ISR.h"
 274              		.file 12 "Generated_Source\\PSoC5/DACBuffer.h"