ARM GAS  C:\Users\simon\AppData\Local\Temp\ccGyp5ZE.s 			page 1


   1              		.syntax unified
   2              		.cpu cortex-m3
   3              		.fpu softvfp
   4              		.eabi_attribute 20, 1
   5              		.eabi_attribute 21, 1
   6              		.eabi_attribute 23, 3
   7              		.eabi_attribute 24, 1
   8              		.eabi_attribute 25, 1
   9              		.eabi_attribute 26, 1
  10              		.eabi_attribute 30, 1
  11              		.eabi_attribute 34, 1
  12              		.eabi_attribute 18, 4
  13              		.thumb
  14              		.syntax unified
  15              		.file	"main.c"
  16              		.text
  17              	.Ltext0:
  18              		.cfi_sections	.debug_frame
  19              		.section	.text.Waveform_ISR,"ax",%progbits
  20              		.align	2
  21              		.global	Waveform_ISR
  22              		.thumb
  23              		.thumb_func
  24              		.type	Waveform_ISR, %function
  25              	Waveform_ISR:
  26              	.LFB63:
  27              		.file 1 "main.c"
   1:main.c        **** /* ========================================
   2:main.c        ****  *
   3:main.c        ****  * Copyright YOUR COMPANY, THE YEAR
   4:main.c        ****  * All Rights Reserved
   5:main.c        ****  * UNPUBLISHED, LICENSED SOFTWARE.
   6:main.c        ****  *
   7:main.c        ****  * CONFIDENTIAL AND PROPRIETARY INFORMATION
   8:main.c        ****  * WHICH IS THE PROPERTY OF your company.
   9:main.c        ****  *
  10:main.c        ****  * ========================================
  11:main.c        **** */
  12:main.c        **** #include <project.h>
  13:main.c        **** #include "waveforms.h"
  14:main.c        **** 
  15:main.c        **** volatile uint32_t waveformIndex = 0;
  16:main.c        **** volatile uint16_t waveVal = 0;
  17:main.c        **** volatile uint8_t volume = 10;
  18:main.c        **** volatile enum Waveform waveform_select = Default;
  19:main.c        **** uint16_t* waveforms[4] = {beginning_waveform, repeat_waveform, end_waveform, default_waveform};
  20:main.c        **** uint16 periods[28] = {4111, 3879, 3662, 3455, 3262, 3078, 2906, 2742, 2589, 2444, 2306, 2177, 2054,
  21:main.c        **** uint16 new_period = 4110;
  22:main.c        **** enum new_waveform {
  23:main.c        ****     False,
  24:main.c        ****     True
  25:main.c        **** };
  26:main.c        **** volatile enum new_waveform new_waveform = False;
  27:main.c        **** volatile uint16_t key_status = 0;
  28:main.c        **** 
  29:main.c        **** enum Note {
  30:main.c        ****     Bb1, B1, C2, Csharp2, D2, Dsharp2, E2, F2, Fsharp2, G2, Gsharp2, A2,
ARM GAS  C:\Users\simon\AppData\Local\Temp\ccGyp5ZE.s 			page 2


  31:main.c        ****     Bb2, B2, C3, Csharp3, D3, Dsharp3, E3, F3, Fsharp3, G3, Gsharp3, A3,
  32:main.c        ****     Bb3, B3, C4, Csharp4
  33:main.c        **** };
  34:main.c        **** 
  35:main.c        **** volatile enum Note note = Csharp3;
  36:main.c        **** 
  37:main.c        **** 
  38:main.c        **** CY_ISR(Waveform_ISR) {
  28              		.loc 1 38 0
  29              		.cfi_startproc
  30              		@ args = 0, pretend = 0, frame = 0
  31              		@ frame_needed = 0, uses_anonymous_args = 0
  32 0000 38B5     		push	{r3, r4, r5, lr}
  33              		.cfi_def_cfa_offset 16
  34              		.cfi_offset 3, -16
  35              		.cfi_offset 4, -12
  36              		.cfi_offset 5, -8
  37              		.cfi_offset 14, -4
  39:main.c        ****     
  40:main.c        ****     // Toggle the digital pin
  41:main.c        ****     Fs_Write(~Fs_Read());
  38              		.loc 1 41 0
  39 0002 FFF7FEFF 		bl	Fs_Read
  40              	.LVL0:
  41 0006 C043     		mvns	r0, r0
  42 0008 C0B2     		uxtb	r0, r0
  43 000a FFF7FEFF 		bl	Fs_Write
  44              	.LVL1:
  42:main.c        ****     
  43:main.c        ****     // Update DAC output with the next value from the waveform
  44:main.c        ****     waveVal = (waveforms[waveform_select][waveformIndex]*volume) + 2048;
  45              		.loc 1 44 0
  46 000e 2A4D     		ldr	r5, .L9
  47 0010 2B78     		ldrb	r3, [r5]	@ zero_extendqisi2
  48 0012 05EB8303 		add	r3, r5, r3, lsl #2
  49 0016 5B68     		ldr	r3, [r3, #4]
  50 0018 284C     		ldr	r4, .L9+4
  51 001a 2268     		ldr	r2, [r4]
  52 001c 33F81220 		ldrh	r2, [r3, r2, lsl #1]
  53 0020 2B7D     		ldrb	r3, [r5, #20]	@ zero_extendqisi2
  54 0022 03FB02F3 		mul	r3, r3, r2
  55 0026 03F50063 		add	r3, r3, #2048
  56 002a 9BB2     		uxth	r3, r3
  57 002c A380     		strh	r3, [r4, #4]	@ movhi
  45:main.c        ****     Wave_Out_SetValue(waveVal);
  58              		.loc 1 45 0
  59 002e A088     		ldrh	r0, [r4, #4]
  60 0030 80B2     		uxth	r0, r0
  61 0032 FFF7FEFF 		bl	Wave_Out_SetValue
  62              	.LVL2:
  46:main.c        ****     
  47:main.c        ****     // Increment waveform index for the next interrupt
  48:main.c        ****     waveformIndex++;
  63              		.loc 1 48 0
  64 0036 2368     		ldr	r3, [r4]
  65 0038 0133     		adds	r3, r3, #1
  66 003a 2360     		str	r3, [r4]
ARM GAS  C:\Users\simon\AppData\Local\Temp\ccGyp5ZE.s 			page 3


  49:main.c        ****     
  50:main.c        ****     // Update the waveform counter if overflowed
  51:main.c        ****     if (waveformIndex >= waveform_sizes[waveform_select]) {
  67              		.loc 1 51 0
  68 003c 2A78     		ldrb	r2, [r5]	@ zero_extendqisi2
  69 003e 204B     		ldr	r3, .L9+8
  70 0040 53F82220 		ldr	r2, [r3, r2, lsl #2]
  71 0044 2368     		ldr	r3, [r4]
  72 0046 9A42     		cmp	r2, r3
  73 0048 33D8     		bhi	.L2
  52:main.c        ****         // Reset the counter
  53:main.c        ****         waveformIndex = 0;
  74              		.loc 1 53 0
  75 004a 0022     		movs	r2, #0
  76 004c 2260     		str	r2, [r4]
  54:main.c        ****         
  55:main.c        ****         switch (waveform_select) {
  77              		.loc 1 55 0
  78 004e 2B78     		ldrb	r3, [r5]	@ zero_extendqisi2
  79 0050 DBB2     		uxtb	r3, r3
  80 0052 032B     		cmp	r3, #3
  81 0054 2DD8     		bhi	.L2
  82 0056 DFE803F0 		tbb	[pc, r3]
  83              	.L4:
  84 005a 02       		.byte	(.L3-.L4)/2
  85 005b 06       		.byte	(.L5-.L4)/2
  86 005c 12       		.byte	(.L6-.L4)/2
  87 005d 1C       		.byte	(.L7-.L4)/2
  88              		.p2align 1
  89              	.L3:
  56:main.c        ****             case Beginning:
  57:main.c        ****                 waveform_select = Repeat; // Moves onto the repeat waveform
  90              		.loc 1 57 0
  91 005e 0122     		movs	r2, #1
  92 0060 154B     		ldr	r3, .L9
  93 0062 1A70     		strb	r2, [r3]
  58:main.c        ****                 break;
  94              		.loc 1 58 0
  95 0064 25E0     		b	.L2
  96              	.L5:
  59:main.c        ****             case Repeat:
  60:main.c        ****                 if (new_waveform == True) { waveform_select = End; new_waveform = False; } // Moves
  97              		.loc 1 60 0
  98 0066 154B     		ldr	r3, .L9+4
  99 0068 9B79     		ldrb	r3, [r3, #6]	@ zero_extendqisi2
 100 006a DBB2     		uxtb	r3, r3
 101 006c 012B     		cmp	r3, #1
 102 006e 20D1     		bne	.L2
 103              		.loc 1 60 0 is_stmt 0 discriminator 1
 104 0070 0222     		movs	r2, #2
 105 0072 114B     		ldr	r3, .L9
 106 0074 1A70     		strb	r2, [r3]
 107 0076 0022     		movs	r2, #0
 108 0078 104B     		ldr	r3, .L9+4
 109 007a 9A71     		strb	r2, [r3, #6]
 110 007c 19E0     		b	.L2
 111              	.L6:
ARM GAS  C:\Users\simon\AppData\Local\Temp\ccGyp5ZE.s 			page 4


  61:main.c        ****                 break;
  62:main.c        ****             case End:
  63:main.c        ****                 waveform_select = Beginning; 
 112              		.loc 1 63 0 is_stmt 1
 113 007e 0E4B     		ldr	r3, .L9
 114 0080 0022     		movs	r2, #0
 115 0082 1A70     		strb	r2, [r3]
  64:main.c        ****                 Waveform_Send_WritePeriod(periods[note]); // moves to the new waveform sampling fre
 116              		.loc 1 64 0
 117 0084 5A7D     		ldrb	r2, [r3, #21]	@ zero_extendqisi2
 118 0086 03EB4203 		add	r3, r3, r2, lsl #1
 119 008a 188B     		ldrh	r0, [r3, #24]
 120 008c FFF7FEFF 		bl	Waveform_Send_WritePeriod
 121              	.LVL3:
  65:main.c        ****                 break;
 122              		.loc 1 65 0
 123 0090 0FE0     		b	.L2
 124              	.L7:
  66:main.c        ****             case Default:
  67:main.c        ****                 if (new_waveform == True) { waveform_select = Beginning; new_waveform = False; Wave
 125              		.loc 1 67 0
 126 0092 0A4B     		ldr	r3, .L9+4
 127 0094 9B79     		ldrb	r3, [r3, #6]	@ zero_extendqisi2
 128 0096 DBB2     		uxtb	r3, r3
 129 0098 012B     		cmp	r3, #1
 130 009a 0AD1     		bne	.L2
 131              		.loc 1 67 0 is_stmt 0 discriminator 1
 132 009c 064B     		ldr	r3, .L9
 133 009e 0022     		movs	r2, #0
 134 00a0 1A70     		strb	r2, [r3]
 135 00a2 0649     		ldr	r1, .L9+4
 136 00a4 8A71     		strb	r2, [r1, #6]
 137 00a6 5A7D     		ldrb	r2, [r3, #21]	@ zero_extendqisi2
 138 00a8 03EB4203 		add	r3, r3, r2, lsl #1
 139 00ac 188B     		ldrh	r0, [r3, #24]
 140 00ae FFF7FEFF 		bl	Waveform_Send_WritePeriod
 141              	.LVL4:
 142              	.L2:
  68:main.c        ****                
  69:main.c        ****                 break; 
  70:main.c        ****         }
  71:main.c        ****     }
  72:main.c        ****     
  73:main.c        ****     // Resets the TC flag
  74:main.c        ****     Waveform_Send_ReadStatusRegister();
 143              		.loc 1 74 0 is_stmt 1
 144 00b2 FFF7FEFF 		bl	Waveform_Send_ReadStatusRegister
 145              	.LVL5:
 146 00b6 38BD     		pop	{r3, r4, r5, pc}
 147              	.L10:
 148              		.align	2
 149              	.L9:
 150 00b8 00000000 		.word	.LANCHOR0
 151 00bc 00000000 		.word	.LANCHOR1
 152 00c0 00000000 		.word	waveform_sizes
 153              		.cfi_endproc
 154              	.LFE63:
ARM GAS  C:\Users\simon\AppData\Local\Temp\ccGyp5ZE.s 			page 5


 155              		.size	Waveform_ISR, .-Waveform_ISR
 156              		.section	.text.Button_ISR,"ax",%progbits
 157              		.align	2
 158              		.global	Button_ISR
 159              		.thumb
 160              		.thumb_func
 161              		.type	Button_ISR, %function
 162              	Button_ISR:
 163              	.LFB64:
  75:main.c        **** }
  76:main.c        **** 
  77:main.c        **** CY_ISR(Button_ISR) {
 164              		.loc 1 77 0
 165              		.cfi_startproc
 166              		@ args = 0, pretend = 0, frame = 0
 167              		@ frame_needed = 0, uses_anonymous_args = 0
 168 0000 10B5     		push	{r4, lr}
 169              		.cfi_def_cfa_offset 8
 170              		.cfi_offset 4, -8
 171              		.cfi_offset 14, -4
  78:main.c        ****     
  79:main.c        ****     key_status = ((uint16_t)KeyNote_High_Read()  << 8) | KeyNote_Low_Read(); // get the values of k
 172              		.loc 1 79 0
 173 0002 FFF7FEFF 		bl	KeyNote_High_Read
 174              	.LVL6:
 175 0006 0402     		lsls	r4, r0, #8
 176 0008 FFF7FEFF 		bl	KeyNote_Low_Read
 177              	.LVL7:
 178 000c 2043     		orrs	r0, r0, r4
 179 000e 80B2     		uxth	r0, r0
 180 0010 754B     		ldr	r3, .L49
 181 0012 1881     		strh	r0, [r3, #8]	@ movhi
  80:main.c        ****     new_waveform = True; // we have a new waveform
 182              		.loc 1 80 0
 183 0014 0122     		movs	r2, #1
 184 0016 9A71     		strb	r2, [r3, #6]
  81:main.c        ****     
  82:main.c        ****     // bit 13 is key 1 in the note table, bit 0 is key 14
  83:main.c        ****     switch (key_status) {
 185              		.loc 1 83 0
 186 0018 1B89     		ldrh	r3, [r3, #8]
 187 001a 9BB2     		uxth	r3, r3
 188 001c 43F68802 		movw	r2, #14472
 189 0020 9342     		cmp	r3, r2
 190 0022 00F0C980 		beq	.L13
 191 0026 37D8     		bhi	.L14
 192 0028 B3F5405F 		cmp	r3, #12288
 193 002c 00F09880 		beq	.L15
 194 0030 18D8     		bhi	.L16
 195 0032 B3F5805F 		cmp	r3, #4096
 196 0036 00F09F80 		beq	.L17
 197 003a 06D8     		bhi	.L18
 198 003c 002B     		cmp	r3, #0
 199 003e 00F09F80 		beq	.L19
 200 0042 802B     		cmp	r3, #128
 201 0044 00F0CC80 		beq	.L20
 202 0048 10BD     		pop	{r4, pc}
ARM GAS  C:\Users\simon\AppData\Local\Temp\ccGyp5ZE.s 			page 6


 203              	.L18:
 204 004a B3F5005F 		cmp	r3, #8192
 205 004e 00F08F80 		beq	.L21
 206 0052 B3F5025F 		cmp	r3, #8320
 207 0056 00F0BB80 		beq	.L22
 208 005a B3F5845F 		cmp	r3, #4224
 209 005e 40F0C280 		bne	.L11
 210 0062 B9E0     		b	.L23
 211              	.L16:
 212 0064 B3F5435F 		cmp	r3, #12480
 213 0068 00F0AE80 		beq	.L24
 214 006c 07D8     		bhi	.L25
 215 006e B3F5415F 		cmp	r3, #12352
 216 0072 79D0     		beq	.L26
 217 0074 B3F5425F 		cmp	r3, #12416
 218 0078 00F0A280 		beq	.L27
 219 007c 10BD     		pop	{r4, pc}
 220              	.L25:
 221 007e 43F60802 		movw	r2, #14344
 222 0082 9342     		cmp	r3, r2
 223 0084 68D0     		beq	.L28
 224 0086 B3F5625F 		cmp	r3, #14464
 225 008a 00F09180 		beq	.L29
 226 008e B3F5605F 		cmp	r3, #14336
 227 0092 40F0A880 		bne	.L11
 228 0096 5BE0     		b	.L30
 229              	.L14:
 230 0098 B3F57C5F 		cmp	r3, #16128
 231 009c 44D0     		beq	.L31
 232 009e 15D8     		bhi	.L32
 233 00a0 B3F5705F 		cmp	r3, #15360
 234 00a4 4CD0     		beq	.L33
 235 00a6 06D8     		bhi	.L34
 236 00a8 B3F5685F 		cmp	r3, #14848
 237 00ac 4CD0     		beq	.L35
 238 00ae B3F56A5F 		cmp	r3, #14976
 239 00b2 79D0     		beq	.L36
 240 00b4 10BD     		pop	{r4, pc}
 241              	.L34:
 242 00b6 B3F5785F 		cmp	r3, #15872
 243 00ba 3DD0     		beq	.L37
 244 00bc B3F57A5F 		cmp	r3, #16000
 245 00c0 6AD0     		beq	.L38
 246 00c2 B3F5725F 		cmp	r3, #15488
 247 00c6 40F08E80 		bne	.L11
 248 00ca 69E0     		b	.L39
 249              	.L32:
 250 00cc 43F61472 		movw	r2, #16148
 251 00d0 9342     		cmp	r3, r2
 252 00d2 1DD0     		beq	.L40
 253 00d4 0CD8     		bhi	.L41
 254 00d6 43F61172 		movw	r2, #16145
 255 00da 9342     		cmp	r3, r2
 256 00dc 14D0     		beq	.L42
 257 00de 43F61272 		movw	r2, #16146
 258 00e2 9342     		cmp	r3, r2
 259 00e4 1CD0     		beq	.L43
ARM GAS  C:\Users\simon\AppData\Local\Temp\ccGyp5ZE.s 			page 7


 260 00e6 43F61072 		movw	r2, #16144
 261 00ea 9342     		cmp	r3, r2
 262 00ec 7BD1     		bne	.L11
 263 00ee 13E0     		b	.L44
 264              	.L41:
 265 00f0 B3F57E5F 		cmp	r3, #16256
 266 00f4 48D0     		beq	.L45
 267 00f6 43F6A072 		movw	r2, #16288
 268 00fa 9342     		cmp	r3, r2
 269 00fc 48D0     		beq	.L46
 270 00fe 43F62072 		movw	r2, #16160
 271 0102 9342     		cmp	r3, r2
 272 0104 6FD1     		bne	.L11
 273 0106 13E0     		b	.L47
 274              	.L42:
  84:main.c        ****         case 0b11111100010001: note = Bb1; break;
 275              		.loc 1 84 0
 276 0108 0022     		movs	r2, #0
 277 010a 384B     		ldr	r3, .L49+4
 278 010c 5A75     		strb	r2, [r3, #21]
 279 010e 10BD     		pop	{r4, pc}
 280              	.L40:
  85:main.c        ****         case 0b11111100010100: note = B1; break;
 281              		.loc 1 85 0
 282 0110 0122     		movs	r2, #1
 283 0112 364B     		ldr	r3, .L49+4
 284 0114 5A75     		strb	r2, [r3, #21]
 285 0116 10BD     		pop	{r4, pc}
 286              	.L44:
  86:main.c        ****         case 0b11111100010000: note = C2; break;
 287              		.loc 1 86 0
 288 0118 0222     		movs	r2, #2
 289 011a 344B     		ldr	r3, .L49+4
 290 011c 5A75     		strb	r2, [r3, #21]
 291 011e 10BD     		pop	{r4, pc}
 292              	.L43:
  87:main.c        ****         case 0b11111100010010: note = Csharp2; break;
 293              		.loc 1 87 0
 294 0120 0322     		movs	r2, #3
 295 0122 324B     		ldr	r3, .L49+4
 296 0124 5A75     		strb	r2, [r3, #21]
 297 0126 10BD     		pop	{r4, pc}
 298              	.L31:
  88:main.c        ****         case 0b11111100000000: note = D2; break;
 299              		.loc 1 88 0
 300 0128 0422     		movs	r2, #4
 301 012a 304B     		ldr	r3, .L49+4
 302 012c 5A75     		strb	r2, [r3, #21]
 303 012e 10BD     		pop	{r4, pc}
 304              	.L47:
  89:main.c        ****         case 0b11111100100000: note = Dsharp2; break;
 305              		.loc 1 89 0
 306 0130 0522     		movs	r2, #5
 307 0132 2E4B     		ldr	r3, .L49+4
 308 0134 5A75     		strb	r2, [r3, #21]
 309 0136 10BD     		pop	{r4, pc}
 310              	.L37:
ARM GAS  C:\Users\simon\AppData\Local\Temp\ccGyp5ZE.s 			page 8


  90:main.c        ****         case 0b11111000000000: note = E2; break;
 311              		.loc 1 90 0
 312 0138 0622     		movs	r2, #6
 313 013a 2C4B     		ldr	r3, .L49+4
 314 013c 5A75     		strb	r2, [r3, #21]
 315 013e 10BD     		pop	{r4, pc}
 316              	.L33:
  91:main.c        ****         case 0b11110000000000: note = F2; break;
 317              		.loc 1 91 0
 318 0140 0722     		movs	r2, #7
 319 0142 2A4B     		ldr	r3, .L49+4
 320 0144 5A75     		strb	r2, [r3, #21]
 321 0146 10BD     		pop	{r4, pc}
 322              	.L35:
  92:main.c        ****         case 0b11101000000000: note = Fsharp2; break;
 323              		.loc 1 92 0
 324 0148 0822     		movs	r2, #8
 325 014a 284B     		ldr	r3, .L49+4
 326 014c 5A75     		strb	r2, [r3, #21]
 327 014e 10BD     		pop	{r4, pc}
 328              	.L30:
  93:main.c        ****         case 0b11100000000000: note = G2; break;
 329              		.loc 1 93 0
 330 0150 0922     		movs	r2, #9
 331 0152 264B     		ldr	r3, .L49+4
 332 0154 5A75     		strb	r2, [r3, #21]
 333 0156 10BD     		pop	{r4, pc}
 334              	.L28:
  94:main.c        ****         case 0b11100000001000: note = Gsharp2; break;
 335              		.loc 1 94 0
 336 0158 0A22     		movs	r2, #10
 337 015a 244B     		ldr	r3, .L49+4
 338 015c 5A75     		strb	r2, [r3, #21]
 339 015e 10BD     		pop	{r4, pc}
 340              	.L15:
  95:main.c        ****         case 0b11000000000000: note = A2;  break;
 341              		.loc 1 95 0
 342 0160 0B22     		movs	r2, #11
 343 0162 224B     		ldr	r3, .L49+4
 344 0164 5A75     		strb	r2, [r3, #21]
 345 0166 10BD     		pop	{r4, pc}
 346              	.L26:
  96:main.c        ****         case 0b11000001000000: note = Bb2; break;
 347              		.loc 1 96 0
 348 0168 0C22     		movs	r2, #12
 349 016a 204B     		ldr	r3, .L49+4
 350 016c 5A75     		strb	r2, [r3, #21]
 351 016e 10BD     		pop	{r4, pc}
 352              	.L21:
  97:main.c        ****         case 0b10000000000000: note = B2; break;
 353              		.loc 1 97 0
 354 0170 0D22     		movs	r2, #13
 355 0172 1E4B     		ldr	r3, .L49+4
 356 0174 5A75     		strb	r2, [r3, #21]
 357 0176 10BD     		pop	{r4, pc}
 358              	.L17:
  98:main.c        ****         case 0b01000000000000: note = C3; break;
ARM GAS  C:\Users\simon\AppData\Local\Temp\ccGyp5ZE.s 			page 9


 359              		.loc 1 98 0
 360 0178 0E22     		movs	r2, #14
 361 017a 1C4B     		ldr	r3, .L49+4
 362 017c 5A75     		strb	r2, [r3, #21]
 363 017e 10BD     		pop	{r4, pc}
 364              	.L19:
  99:main.c        ****         case 0b00000000000000: note = Csharp3; break;
 365              		.loc 1 99 0
 366 0180 0F22     		movs	r2, #15
 367 0182 1A4B     		ldr	r3, .L49+4
 368 0184 5A75     		strb	r2, [r3, #21]
 369 0186 10BD     		pop	{r4, pc}
 370              	.L45:
 100:main.c        ****         case 0b11111110000000: note = D3; break;
 371              		.loc 1 100 0
 372 0188 1022     		movs	r2, #16
 373 018a 184B     		ldr	r3, .L49+4
 374 018c 5A75     		strb	r2, [r3, #21]
 375 018e 10BD     		pop	{r4, pc}
 376              	.L46:
 101:main.c        ****         case 0b11111110100000: note = Dsharp3; break;
 377              		.loc 1 101 0
 378 0190 1122     		movs	r2, #17
 379 0192 164B     		ldr	r3, .L49+4
 380 0194 5A75     		strb	r2, [r3, #21]
 381 0196 10BD     		pop	{r4, pc}
 382              	.L38:
 102:main.c        ****         case 0b11111010000000: note = E3; break;
 383              		.loc 1 102 0
 384 0198 1222     		movs	r2, #18
 385 019a 144B     		ldr	r3, .L49+4
 386 019c 5A75     		strb	r2, [r3, #21]
 387 019e 10BD     		pop	{r4, pc}
 388              	.L39:
 103:main.c        ****         case 0b11110010000000: note = F3; break;
 389              		.loc 1 103 0
 390 01a0 1322     		movs	r2, #19
 391 01a2 124B     		ldr	r3, .L49+4
 392 01a4 5A75     		strb	r2, [r3, #21]
 393 01a6 10BD     		pop	{r4, pc}
 394              	.L36:
 104:main.c        ****         case 0b11101010000000: note = Fsharp3; break;
 395              		.loc 1 104 0
 396 01a8 1422     		movs	r2, #20
 397 01aa 104B     		ldr	r3, .L49+4
 398 01ac 5A75     		strb	r2, [r3, #21]
 399 01ae 10BD     		pop	{r4, pc}
 400              	.L29:
 105:main.c        ****         case 0b11100010000000: note = G3; break;
 401              		.loc 1 105 0
 402 01b0 1522     		movs	r2, #21
 403 01b2 0E4B     		ldr	r3, .L49+4
 404 01b4 5A75     		strb	r2, [r3, #21]
 405 01b6 10BD     		pop	{r4, pc}
 406              	.L13:
 106:main.c        ****         case 0b11100010001000: note = Gsharp3; break;
 407              		.loc 1 106 0
ARM GAS  C:\Users\simon\AppData\Local\Temp\ccGyp5ZE.s 			page 10


 408 01b8 1622     		movs	r2, #22
 409 01ba 0C4B     		ldr	r3, .L49+4
 410 01bc 5A75     		strb	r2, [r3, #21]
 411 01be 10BD     		pop	{r4, pc}
 412              	.L27:
 107:main.c        ****         case 0b11000010000000: note = A3; break;
 413              		.loc 1 107 0
 414 01c0 1722     		movs	r2, #23
 415 01c2 0A4B     		ldr	r3, .L49+4
 416 01c4 5A75     		strb	r2, [r3, #21]
 417 01c6 10BD     		pop	{r4, pc}
 418              	.L24:
 108:main.c        ****         case 0b11000011000000: note = Bb3; break;
 419              		.loc 1 108 0
 420 01c8 1822     		movs	r2, #24
 421 01ca 084B     		ldr	r3, .L49+4
 422 01cc 5A75     		strb	r2, [r3, #21]
 423 01ce 10BD     		pop	{r4, pc}
 424              	.L22:
 109:main.c        ****         case 0b10000010000000: note = B3; break;
 425              		.loc 1 109 0
 426 01d0 1922     		movs	r2, #25
 427 01d2 064B     		ldr	r3, .L49+4
 428 01d4 5A75     		strb	r2, [r3, #21]
 429 01d6 10BD     		pop	{r4, pc}
 430              	.L23:
 110:main.c        ****         case 0b01000010000000: note = C4; break;
 431              		.loc 1 110 0
 432 01d8 1A22     		movs	r2, #26
 433 01da 044B     		ldr	r3, .L49+4
 434 01dc 5A75     		strb	r2, [r3, #21]
 435 01de 10BD     		pop	{r4, pc}
 436              	.L20:
 111:main.c        ****         case 0b00000010000000: note = Csharp4; break;
 437              		.loc 1 111 0
 438 01e0 1B22     		movs	r2, #27
 439 01e2 024B     		ldr	r3, .L49+4
 440 01e4 5A75     		strb	r2, [r3, #21]
 441              	.L11:
 442 01e6 10BD     		pop	{r4, pc}
 443              	.L50:
 444              		.align	2
 445              	.L49:
 446 01e8 00000000 		.word	.LANCHOR1
 447 01ec 00000000 		.word	.LANCHOR0
 448              		.cfi_endproc
 449              	.LFE64:
 450              		.size	Button_ISR, .-Button_ISR
 451              		.section	.text.main,"ax",%progbits
 452              		.align	2
 453              		.global	main
 454              		.thumb
 455              		.thumb_func
 456              		.type	main, %function
 457              	main:
 458              	.LFB65:
 112:main.c        ****         default: break;
ARM GAS  C:\Users\simon\AppData\Local\Temp\ccGyp5ZE.s 			page 11


 113:main.c        ****     }  
 114:main.c        **** }
 115:main.c        **** 
 116:main.c        **** int main(void) {
 459              		.loc 1 116 0
 460              		.cfi_startproc
 461              		@ Volatile: function does not return.
 462              		@ args = 0, pretend = 0, frame = 0
 463              		@ frame_needed = 0, uses_anonymous_args = 0
 464 0000 08B5     		push	{r3, lr}
 465              		.cfi_def_cfa_offset 8
 466              		.cfi_offset 3, -8
 467              		.cfi_offset 14, -4
 117:main.c        ****     
 118:main.c        ****     CyGlobalIntEnable; // Enable global interrupts
 468              		.loc 1 118 0
 469              		.syntax unified
 470              	@ 118 "main.c" 1
 471 0002 62B6     		CPSIE   i
 472              	@ 0 "" 2
 119:main.c        ****     Waveform_ISR_StartEx(Waveform_ISR); // Initialize the Waveform ISR
 473              		.loc 1 119 0
 474              		.thumb
 475              		.syntax unified
 476 0004 0648     		ldr	r0, .L54
 477 0006 FFF7FEFF 		bl	Waveform_ISR_StartEx
 478              	.LVL8:
 120:main.c        ****     Button_Switch_StartEx(Button_ISR); // Initialize the Button ISR
 479              		.loc 1 120 0
 480 000a 0648     		ldr	r0, .L54+4
 481 000c FFF7FEFF 		bl	Button_Switch_StartEx
 482              	.LVL9:
 121:main.c        ****     
 122:main.c        ****     // Initialize components
 123:main.c        ****     Waveform_Send_Start(); // Start the Waveform Timer
 483              		.loc 1 123 0
 484 0010 FFF7FEFF 		bl	Waveform_Send_Start
 485              	.LVL10:
 124:main.c        ****     Wave_Out_Start(); // Start the DAC
 486              		.loc 1 124 0
 487 0014 FFF7FEFF 		bl	Wave_Out_Start
 488              	.LVL11:
 125:main.c        ****     DACBuffer_Start(); // Start the OpAmp
 489              		.loc 1 125 0
 490 0018 FFF7FEFF 		bl	DACBuffer_Start
 491              	.LVL12:
 492              	.L52:
 493 001c FEE7     		b	.L52
 494              	.L55:
 495 001e 00BF     		.align	2
 496              	.L54:
 497 0020 00000000 		.word	Waveform_ISR
 498 0024 00000000 		.word	Button_ISR
 499              		.cfi_endproc
 500              	.LFE65:
 501              		.size	main, .-main
 502              		.global	note
ARM GAS  C:\Users\simon\AppData\Local\Temp\ccGyp5ZE.s 			page 12


 503              		.global	key_status
 504              		.global	new_waveform
 505              		.global	new_period
 506              		.global	periods
 507              		.global	waveforms
 508              		.global	waveform_select
 509              		.global	volume
 510              		.global	waveVal
 511              		.global	waveformIndex
 512              		.data
 513              		.align	2
 514              		.set	.LANCHOR0,. + 0
 515              		.type	waveform_select, %object
 516              		.size	waveform_select, 1
 517              	waveform_select:
 518 0000 03       		.byte	3
 519 0001 000000   		.space	3
 520              		.type	waveforms, %object
 521              		.size	waveforms, 16
 522              	waveforms:
 523 0004 00000000 		.word	beginning_waveform
 524 0008 00000000 		.word	repeat_waveform
 525 000c 00000000 		.word	end_waveform
 526 0010 00000000 		.word	default_waveform
 527              		.type	volume, %object
 528              		.size	volume, 1
 529              	volume:
 530 0014 0A       		.byte	10
 531              		.type	note, %object
 532              		.size	note, 1
 533              	note:
 534 0015 0F       		.byte	15
 535 0016 0000     		.space	2
 536              		.type	periods, %object
 537              		.size	periods, 56
 538              	periods:
 539 0018 0F10     		.short	4111
 540 001a 270F     		.short	3879
 541 001c 4E0E     		.short	3662
 542 001e 7F0D     		.short	3455
 543 0020 BE0C     		.short	3262
 544 0022 060C     		.short	3078
 545 0024 5A0B     		.short	2906
 546 0026 B60A     		.short	2742
 547 0028 1D0A     		.short	2589
 548 002a 8C09     		.short	2444
 549 002c 0209     		.short	2306
 550 002e 8108     		.short	2177
 551 0030 0608     		.short	2054
 552 0032 9307     		.short	1939
 553 0034 2607     		.short	1830
 554 0036 C006     		.short	1728
 555 0038 5F06     		.short	1631
 556 003a 0306     		.short	1539
 557 003c AD05     		.short	1453
 558 003e 5B05     		.short	1371
 559 0040 0E05     		.short	1294
ARM GAS  C:\Users\simon\AppData\Local\Temp\ccGyp5ZE.s 			page 13


 560 0042 C604     		.short	1222
 561 0044 8104     		.short	1153
 562 0046 4004     		.short	1088
 563 0048 0304     		.short	1027
 564 004a CA03     		.short	970
 565 004c 9303     		.short	915
 566 004e 6003     		.short	864
 567              		.type	new_period, %object
 568              		.size	new_period, 2
 569              	new_period:
 570 0050 0E10     		.short	4110
 571              		.bss
 572              		.align	2
 573              		.set	.LANCHOR1,. + 0
 574              		.type	waveformIndex, %object
 575              		.size	waveformIndex, 4
 576              	waveformIndex:
 577 0000 00000000 		.space	4
 578              		.type	waveVal, %object
 579              		.size	waveVal, 2
 580              	waveVal:
 581 0004 0000     		.space	2
 582              		.type	new_waveform, %object
 583              		.size	new_waveform, 1
 584              	new_waveform:
 585 0006 00       		.space	1
 586 0007 00       		.space	1
 587              		.type	key_status, %object
 588              		.size	key_status, 2
 589              	key_status:
 590 0008 0000     		.space	2
 591              		.text
 592              	.Letext0:
 593              		.file 2 "c:\\program files (x86)\\cypress\\psoc creator\\4.4\\psoc creator\\import\\gnu\\arm\\5.4.
 594              		.file 3 "c:\\program files (x86)\\cypress\\psoc creator\\4.4\\psoc creator\\import\\gnu\\arm\\5.4.
 595              		.file 4 "Generated_Source\\PSoC5/cytypes.h"
 596              		.file 5 "waveforms.h"
 597              		.file 6 "Generated_Source\\PSoC5/core_cm3.h"
 598              		.file 7 "Generated_Source\\PSoC5/Fs.h"
 599              		.file 8 "Generated_Source\\PSoC5/Wave_Out.h"
 600              		.file 9 "Generated_Source\\PSoC5/Waveform_Send.h"
 601              		.file 10 "Generated_Source\\PSoC5/KeyNote_High.h"
 602              		.file 11 "Generated_Source\\PSoC5/KeyNote_Low.h"
 603              		.file 12 "Generated_Source\\PSoC5/Waveform_ISR.h"
 604              		.file 13 "Generated_Source\\PSoC5/Button_Switch.h"
 605              		.file 14 "Generated_Source\\PSoC5/DACBuffer.h"